

Microchip MPLAB XC8 Assembler V2.50 build 20240725155939 
                                                                                               Fri Dec 05 16:44:39 2025

Microchip MPLAB XC8 C Compiler v2.50 (Free license) build 20240725155939 Og9 
     1                           	processor	18F4550
     2                           	fnconf	rparam,??,?,0
     3                           	pagewidth 120
     4                           	opt	flic
     5                           	psect	idataCOMRAM,global,class=CODE,space=0,delta=1,noexec
     6                           	psect	nvCOMRAM,global,class=COMRAM,space=1,delta=1,lowdata,noexec
     7                           	psect	smallconst,global,reloc=2,class=SMALLCONST,space=0,delta=1,noexec
     8                           	psect	cinit,global,reloc=2,class=CODE,space=0,delta=1
     9                           	psect	bssCOMRAM,global,class=COMRAM,space=1,delta=1,lowdata,noexec
    10                           	psect	dataCOMRAM,global,class=COMRAM,space=1,delta=1,lowdata,noexec
    11                           	psect	cstackBANK0,global,class=BANK0,space=1,delta=1,lowdata,noexec
    12                           	psect	cstackCOMRAM,global,class=COMRAM,space=1,delta=1,lowdata,noexec
    13                           	psect	text0,global,reloc=2,class=CODE,space=0,delta=1
    14                           	psect	text1,global,reloc=2,class=CODE,space=0,delta=1
    15                           	psect	text2,global,reloc=2,class=CODE,space=0,delta=1
    16                           	psect	text3,global,reloc=2,class=CODE,space=0,delta=1
    17                           	psect	text4,global,reloc=2,class=CODE,space=0,delta=1,group=1
    18                           	psect	text5,global,reloc=2,class=CODE,space=0,delta=1,group=1
    19                           	psect	text6,global,reloc=2,class=CODE,space=0,delta=1
    20                           	psect	text7,global,reloc=2,class=CODE,space=0,delta=1
    21                           	psect	text8,global,reloc=2,class=CODE,space=0,delta=1
    22                           	psect	text9,global,reloc=2,class=CODE,space=0,delta=1
    23                           	psect	text10,global,reloc=2,class=CODE,space=0,delta=1
    24                           	psect	text11,global,reloc=2,class=CODE,space=0,delta=1
    25                           	psect	text12,global,reloc=2,class=CODE,space=0,delta=1
    26                           	psect	text13,global,reloc=2,class=CODE,space=0,delta=1
    27                           	psect	text14,global,reloc=2,class=CODE,space=0,delta=1
    28                           	psect	text15,global,reloc=2,class=CODE,space=0,delta=1
    29                           	psect	text16,global,reloc=2,class=CODE,space=0,delta=1
    30                           	psect	text17,global,reloc=2,class=CODE,space=0,delta=1
    31                           	psect	text18,global,reloc=2,class=CODE,space=0,delta=1
    32                           	psect	text19,global,reloc=2,class=CODE,space=0,delta=1
    33                           	psect	text20,global,reloc=2,class=CODE,space=0,delta=1
    34                           	psect	text21,global,reloc=2,class=CODE,space=0,delta=1
    35                           	psect	intcode,global,reloc=2,class=CODE,space=0,delta=1
    36                           	psect	intcode_body,global,reloc=2,class=CODE,space=0,delta=1
    37                           	psect	text23,global,reloc=2,class=CODE,space=0,delta=1
    38                           	psect	text24,global,reloc=2,class=CODE,space=0,delta=1,group=1
    39                           	psect	text25,global,reloc=2,class=CODE,space=0,delta=1
    40                           	psect	text26,global,reloc=2,class=CODE,space=0,delta=1
    41                           	psect	text27,global,reloc=2,class=CODE,space=0,delta=1
    42                           	psect	text28,global,reloc=2,class=CODE,space=0,delta=1
    43                           	psect	text29,global,reloc=2,class=CODE,space=0,delta=1
    44                           	psect	text30,global,reloc=2,class=CODE,space=0,delta=1
    45                           	psect	text31,global,reloc=2,class=CODE,space=0,delta=1
    46                           	psect	text32,global,reloc=2,class=CODE,space=0,delta=1
    47                           	psect	text33,global,reloc=2,class=CODE,space=0,delta=1
    48                           	psect	text34,global,reloc=2,class=CODE,space=0,delta=1
    49                           	psect	text35,global,reloc=2,class=CODE,space=0,delta=1
    50                           	psect	text36,global,reloc=2,class=CODE,space=0,delta=1
    51                           	psect	text37,global,reloc=2,class=CODE,space=0,delta=1
    52                           	psect	text38,global,reloc=2,class=CODE,space=0,delta=1
    53                           	psect	text39,global,reloc=2,class=CODE,space=0,delta=1
    54                           	psect	intsave_regs,global,class=BIGRAM,space=1,delta=1,noexec
    55                           	psect	rparam,global,class=COMRAM,space=1,delta=1,noexec
    56                           	psect	temp,global,ovrld,common,class=COMRAM,space=1,delta=1,lowdata
    57                           	psect	idloc,global,abs,ovrld,class=IDLOC,space=5,delta=1,noexec
    58                           	psect	config,global,abs,ovrld,class=CONFIG,space=4,delta=1,noexec
    59   000000                     
    60                           ; Generated 25/07/2024 GMT
    61                           ; 
    62                           ; Copyright © 2024, Microchip Technology Inc. and its subsidiaries ("Microchip")
    63                           ; All rights reserved.
    64                           ; 
    65                           ; This software is developed by Microchip Technology Inc. and its subsidiaries ("Microch
      +                          ip").
    66                           ; 
    67                           ; Redistribution and use in source and binary forms, with or without modification, are
    68                           ; permitted provided that the following conditions are met:
    69                           ; 
    70                           ;     1. Redistributions of source code must retain the above copyright notice, this lis
      +                          t of
    71                           ;        conditions and the following disclaimer.
    72                           ; 
    73                           ;     2. Redistributions in binary form must reproduce the above copyright notice, this 
      +                          list
    74                           ;        of conditions and the following disclaimer in the documentation and/or other
    75                           ;        materials provided with the distribution. Publication is not required when
    76                           ;        this file is used in an embedded application.
    77                           ; 
    78                           ;     3. Microchip's name may not be used to endorse or promote products derived from th
      +                          is
    79                           ;        software without specific prior written permission.
    80                           ; 
    81                           ; THIS SOFTWARE IS PROVIDED BY MICROCHIP "AS IS" AND ANY EXPRESS OR IMPLIED WARRANTIES,
    82                           ; INCLUDING, BUT NOT LIMITED TO, THE IMPLIED WARRANTIES OF MERCHANTABILITY AND FITNESS F
      +                          OR
    83                           ; PURPOSE ARE DISCLAIMED.  IN NO EVENT SHALL MICROCHIP BE LIABLE FOR ANY DIRECT, INDIREC
      +                          T,
    84                           ; INCIDENTAL, SPECIAL, EXEMPLARY, OR CONSEQUENTIAL DAMAGES (INCLUDING BUT NOT LIMITED TO
    85                           ; PROCUREMENT OF SUBSTITUTE GOODS OR SERVICES; LOSS OF USE, DATA OR PROFITS; OR BUSINESS
    86                           ; INTERRUPTION) HOWSOEVER CAUSED AND ON ANY THEORY OF LIABILITY, WHETHER IN CONTRACT, ST
      +                          RICT
    87                           ; LIABILITY, OR TORT (INCLUDING NEGLIGENCE OR OTHERWISE) ARISING IN ANY WAY OUT OF THE U
      +                          SE OF
    88                           ; THIS SOFTWARE, EVEN IF ADVISED OF THE POSSIBILITY OF SUCH DAMAGE.
    89                           ; 
    90                           ; 
    91                           ; Code-generator required, PIC18F4550 Definitions
    92                           ; 
    93                           ; SFR Addresses
    94   000FE0                     bsr             equ	4064
    95   000FE9                     fsr0            equ	4073
    96   000FEA                     fsr0h           equ	4074
    97   000FE9                     fsr0l           equ	4073
    98   000FE1                     fsr1            equ	4065
    99   000FE2                     fsr1h           equ	4066
   100   000FE1                     fsr1l           equ	4065
   101   000FD9                     fsr2            equ	4057
   102   000FDA                     fsr2h           equ	4058
   103   000FD9                     fsr2l           equ	4057
   104   000FEF                     indf0           equ	4079
   105   000FE7                     indf1           equ	4071
   106   000FDF                     indf2           equ	4063
   107   000FF2                     intcon          equ	4082
   108   000000                     nvmcon          equ	0
   109   000FF9                     pcl             equ	4089
   110   000FFA                     pclath          equ	4090
   111   000FFB                     pclatu          equ	4091
   112   000FEB                     plusw0          equ	4075
   113   000FE3                     plusw1          equ	4067
   114   000FDB                     plusw2          equ	4059
   115   000FED                     postdec0        equ	4077
   116   000FE5                     postdec1        equ	4069
   117   000FDD                     postdec2        equ	4061
   118   000FEE                     postinc0        equ	4078
   119   000FE6                     postinc1        equ	4070
   120   000FDE                     postinc2        equ	4062
   121   000FEC                     preinc0         equ	4076
   122   000FE4                     preinc1         equ	4068
   123   000FDC                     preinc2         equ	4060
   124   000FF3                     prod            equ	4083
   125   000FF4                     prodh           equ	4084
   126   000FF3                     prodl           equ	4083
   127   000FD8                     status          equ	4056
   128   000FF5                     tablat          equ	4085
   129   000FF6                     tblptr          equ	4086
   130   000FF7                     tblptrh         equ	4087
   131   000FF6                     tblptrl         equ	4086
   132   000FF8                     tblptru         equ	4088
   133   000FFD                     tosl            equ	4093
   134   000FE8                     wreg            equ	4072
   135   000F62                     SPPDATA         equ	3938	;# 
   136   000F63                     SPPCFG          equ	3939	;# 
   137   000F64                     SPPEPS          equ	3940	;# 
   138   000F65                     SPPCON          equ	3941	;# 
   139   000F66                     UFRM            equ	3942	;# 
   140   000F66                     UFRML           equ	3942	;# 
   141   000F67                     UFRMH           equ	3943	;# 
   142   000F68                     UIR             equ	3944	;# 
   143   000F69                     UIE             equ	3945	;# 
   144   000F6A                     UEIR            equ	3946	;# 
   145   000F6B                     UEIE            equ	3947	;# 
   146   000F6C                     USTAT           equ	3948	;# 
   147   000F6D                     UCON            equ	3949	;# 
   148   000F6E                     UADDR           equ	3950	;# 
   149   000F6F                     UCFG            equ	3951	;# 
   150   000F70                     UEP0            equ	3952	;# 
   151   000F71                     UEP1            equ	3953	;# 
   152   000F72                     UEP2            equ	3954	;# 
   153   000F73                     UEP3            equ	3955	;# 
   154   000F74                     UEP4            equ	3956	;# 
   155   000F75                     UEP5            equ	3957	;# 
   156   000F76                     UEP6            equ	3958	;# 
   157   000F77                     UEP7            equ	3959	;# 
   158   000F78                     UEP8            equ	3960	;# 
   159   000F79                     UEP9            equ	3961	;# 
   160   000F7A                     UEP10           equ	3962	;# 
   161   000F7B                     UEP11           equ	3963	;# 
   162   000F7C                     UEP12           equ	3964	;# 
   163   000F7D                     UEP13           equ	3965	;# 
   164   000F7E                     UEP14           equ	3966	;# 
   165   000F7F                     UEP15           equ	3967	;# 
   166   000F80                     PORTA           equ	3968	;# 
   167   000F81                     PORTB           equ	3969	;# 
   168   000F82                     PORTC           equ	3970	;# 
   169   000F83                     PORTD           equ	3971	;# 
   170   000F84                     PORTE           equ	3972	;# 
   171   000F89                     LATA            equ	3977	;# 
   172   000F8A                     LATB            equ	3978	;# 
   173   000F8B                     LATC            equ	3979	;# 
   174   000F8C                     LATD            equ	3980	;# 
   175   000F8D                     LATE            equ	3981	;# 
   176   000F92                     TRISA           equ	3986	;# 
   177   000F92                     DDRA            equ	3986	;# 
   178   000F93                     TRISB           equ	3987	;# 
   179   000F93                     DDRB            equ	3987	;# 
   180   000F94                     TRISC           equ	3988	;# 
   181   000F94                     DDRC            equ	3988	;# 
   182   000F95                     TRISD           equ	3989	;# 
   183   000F95                     DDRD            equ	3989	;# 
   184   000F96                     TRISE           equ	3990	;# 
   185   000F96                     DDRE            equ	3990	;# 
   186   000F9B                     OSCTUNE         equ	3995	;# 
   187   000F9D                     PIE1            equ	3997	;# 
   188   000F9E                     PIR1            equ	3998	;# 
   189   000F9F                     IPR1            equ	3999	;# 
   190   000FA0                     PIE2            equ	4000	;# 
   191   000FA1                     PIR2            equ	4001	;# 
   192   000FA2                     IPR2            equ	4002	;# 
   193   000FA6                     EECON1          equ	4006	;# 
   194   000FA7                     EECON2          equ	4007	;# 
   195   000FA8                     EEDATA          equ	4008	;# 
   196   000FA9                     EEADR           equ	4009	;# 
   197   000FAB                     RCSTA           equ	4011	;# 
   198   000FAB                     RCSTA1          equ	4011	;# 
   199   000FAC                     TXSTA           equ	4012	;# 
   200   000FAC                     TXSTA1          equ	4012	;# 
   201   000FAD                     TXREG           equ	4013	;# 
   202   000FAD                     TXREG1          equ	4013	;# 
   203   000FAE                     RCREG           equ	4014	;# 
   204   000FAE                     RCREG1          equ	4014	;# 
   205   000FAF                     SPBRG           equ	4015	;# 
   206   000FAF                     SPBRG1          equ	4015	;# 
   207   000FB0                     SPBRGH          equ	4016	;# 
   208   000FB1                     T3CON           equ	4017	;# 
   209   000FB2                     TMR3            equ	4018	;# 
   210   000FB2                     TMR3L           equ	4018	;# 
   211   000FB3                     TMR3H           equ	4019	;# 
   212   000FB4                     CMCON           equ	4020	;# 
   213   000FB5                     CVRCON          equ	4021	;# 
   214   000FB6                     ECCP1AS         equ	4022	;# 
   215   000FB6                     CCP1AS          equ	4022	;# 
   216   000FB7                     ECCP1DEL        equ	4023	;# 
   217   000FB7                     CCP1DEL         equ	4023	;# 
   218   000FB8                     BAUDCON         equ	4024	;# 
   219   000FB8                     BAUDCTL         equ	4024	;# 
   220   000FBA                     CCP2CON         equ	4026	;# 
   221   000FBB                     CCPR2           equ	4027	;# 
   222   000FBB                     CCPR2L          equ	4027	;# 
   223   000FBC                     CCPR2H          equ	4028	;# 
   224   000FBD                     CCP1CON         equ	4029	;# 
   225   000FBD                     ECCP1CON        equ	4029	;# 
   226   000FBE                     CCPR1           equ	4030	;# 
   227   000FBE                     CCPR1L          equ	4030	;# 
   228   000FBF                     CCPR1H          equ	4031	;# 
   229   000FC0                     ADCON2          equ	4032	;# 
   230   000FC1                     ADCON1          equ	4033	;# 
   231   000FC2                     ADCON0          equ	4034	;# 
   232   000FC3                     ADRES           equ	4035	;# 
   233   000FC3                     ADRESL          equ	4035	;# 
   234   000FC4                     ADRESH          equ	4036	;# 
   235   000FC5                     SSPCON2         equ	4037	;# 
   236   000FC6                     SSPCON1         equ	4038	;# 
   237   000FC7                     SSPSTAT         equ	4039	;# 
   238   000FC8                     SSPADD          equ	4040	;# 
   239   000FC9                     SSPBUF          equ	4041	;# 
   240   000FCA                     T2CON           equ	4042	;# 
   241   000FCB                     PR2             equ	4043	;# 
   242   000FCB                     MEMCON          equ	4043	;# 
   243   000FCC                     TMR2            equ	4044	;# 
   244   000FCD                     T1CON           equ	4045	;# 
   245   000FCE                     TMR1            equ	4046	;# 
   246   000FCE                     TMR1L           equ	4046	;# 
   247   000FCF                     TMR1H           equ	4047	;# 
   248   000FD0                     RCON            equ	4048	;# 
   249   000FD1                     WDTCON          equ	4049	;# 
   250   000FD2                     HLVDCON         equ	4050	;# 
   251   000FD2                     LVDCON          equ	4050	;# 
   252   000FD3                     OSCCON          equ	4051	;# 
   253   000FD5                     T0CON           equ	4053	;# 
   254   000FD6                     TMR0            equ	4054	;# 
   255   000FD6                     TMR0L           equ	4054	;# 
   256   000FD7                     TMR0H           equ	4055	;# 
   257   000FD8                     STATUS          equ	4056	;# 
   258   000FD9                     FSR2            equ	4057	;# 
   259   000FD9                     FSR2L           equ	4057	;# 
   260   000FDA                     FSR2H           equ	4058	;# 
   261   000FDB                     PLUSW2          equ	4059	;# 
   262   000FDC                     PREINC2         equ	4060	;# 
   263   000FDD                     POSTDEC2        equ	4061	;# 
   264   000FDE                     POSTINC2        equ	4062	;# 
   265   000FDF                     INDF2           equ	4063	;# 
   266   000FE0                     BSR             equ	4064	;# 
   267   000FE1                     FSR1            equ	4065	;# 
   268   000FE1                     FSR1L           equ	4065	;# 
   269   000FE2                     FSR1H           equ	4066	;# 
   270   000FE3                     PLUSW1          equ	4067	;# 
   271   000FE4                     PREINC1         equ	4068	;# 
   272   000FE5                     POSTDEC1        equ	4069	;# 
   273   000FE6                     POSTINC1        equ	4070	;# 
   274   000FE7                     INDF1           equ	4071	;# 
   275   000FE8                     WREG            equ	4072	;# 
   276   000FE9                     FSR0            equ	4073	;# 
   277   000FE9                     FSR0L           equ	4073	;# 
   278   000FEA                     FSR0H           equ	4074	;# 
   279   000FEB                     PLUSW0          equ	4075	;# 
   280   000FEC                     PREINC0         equ	4076	;# 
   281   000FED                     POSTDEC0        equ	4077	;# 
   282   000FEE                     POSTINC0        equ	4078	;# 
   283   000FEF                     INDF0           equ	4079	;# 
   284   000FF0                     INTCON3         equ	4080	;# 
   285   000FF1                     INTCON2         equ	4081	;# 
   286   000FF2                     INTCON          equ	4082	;# 
   287   000FF3                     PROD            equ	4083	;# 
   288   000FF3                     PRODL           equ	4083	;# 
   289   000FF4                     PRODH           equ	4084	;# 
   290   000FF5                     TABLAT          equ	4085	;# 
   291   000FF6                     TBLPTR          equ	4086	;# 
   292   000FF6                     TBLPTRL         equ	4086	;# 
   293   000FF7                     TBLPTRH         equ	4087	;# 
   294   000FF8                     TBLPTRU         equ	4088	;# 
   295   000FF9                     PCLAT           equ	4089	;# 
   296   000FF9                     PC              equ	4089	;# 
   297   000FF9                     PCL             equ	4089	;# 
   298   000FFA                     PCLATH          equ	4090	;# 
   299   000FFB                     PCLATU          equ	4091	;# 
   300   000FFC                     STKPTR          equ	4092	;# 
   301   000FFD                     TOS             equ	4093	;# 
   302   000FFD                     TOSL            equ	4093	;# 
   303   000FFE                     TOSH            equ	4094	;# 
   304   000FFF                     TOSU            equ	4095	;# 
   305                           
   306                           	psect	idataCOMRAM
   307   0015DC                     __pidataCOMRAM:
   308                           	callstack 0
   309                           
   310                           ;initializer for _interfaz
   311   0015DC  08                 	db	8
   312                           
   313                           ;initializer for _Marco
   314   0015DD  1F                 	db	31
   315   0015DE  11                 	db	17
   316   0015DF  11                 	db	17
   317   0015E0  11                 	db	17
   318   0015E1  11                 	db	17
   319   0015E2  11                 	db	17
   320   0015E3  11                 	db	17
   321   0015E4  1F                 	db	31
   322                           
   323                           ;initializer for _Estrella
   324   0015E5  04                 	db	4
   325   0015E6  0E                 	db	14
   326   0015E7  1F                 	db	31
   327   0015E8  0E                 	db	14
   328   0015E9  1F                 	db	31
   329   0015EA  0E                 	db	14
   330   0015EB  04                 	db	4
   331   0015EC  00                 	db	0
   332                           
   333                           	psect	nvCOMRAM
   334   000045                     __pnvCOMRAM:
   335                           	callstack 0
   336   000045                     _pulsadorListo:
   337                           	callstack 0
   338   000045                     	ds	1
   339   007C0F                     _RB7            set	31759
   340   007C0E                     _RB6            set	31758
   341   007C0D                     _RB5            set	31757
   342   007C0C                     _RB4            set	31756
   343   007C11                     _RC1            set	31761
   344   007F97                     _GIE            set	32663
   345   007F96                     _PEIE           set	32662
   346   007F93                     _RBIE           set	32659
   347   007F90                     _RBIF           set	32656
   348   007F8F                     _RBPU           set	32655
   349   007E68                     _TMR1ON         set	32360
   350   007CE8                     _TMR1IE         set	31976
   351   007CF0                     _TMR1IF         set	31984
   352   007EAF                     _TMR0ON         set	32431
   353   007F95                     _TMR0IE         set	32661
   354   007F92                     _TMR0IF         set	32658
   355   007C95                     _TRISA5         set	31893
   356   007CA1                     _TRISC1         set	31905
   357   007C94                     _TRISA4         set	31892
   358   007C4B                     _LATA3          set	31819
   359   007C93                     _TRISA3         set	31891
   360   007C4A                     _LATA2          set	31818
   361   007C92                     _TRISA2         set	31890
   362   007C49                     _LATA1          set	31817
   363   007C91                     _TRISA1         set	31889
   364   007C4D                     _LATA5          set	31821
   365   007C4C                     _LATA4          set	31820
   366   000FCE                     _TMR1           set	4046
   367   000FD6                     _TMR0           set	4054
   368   000F81                     _PORTB          set	3969
   369   000F8A                     _LATB           set	3978
   370   000F93                     _TRISB          set	3987
   371   000FCD                     _T1CON          set	4045
   372   000FD5                     _T0CON          set	4053
   373   000F95                     _TRISD          set	3989
   374   000F8D                     _LATE           set	3981
   375   000F96                     _TRISE          set	3990
   376   000FC1                     _ADCON1         set	4033
   377   000F8C                     _LATD           set	3980
   378                           
   379                           	psect	smallconst
   380   000800                     __psmallconst:
   381                           	callstack 0
   382   000800  00                 	db	0
   383   000801                     STR_9:
   384   000801  50                 	db	80	;'P'
   385   000802  69                 	db	105	;'i'
   386   000803  65                 	db	101	;'e'
   387   000804  7A                 	db	122	;'z'
   388   000805  61                 	db	97	;'a'
   389   000806  73                 	db	115	;'s'
   390   000807  20                 	db	32
   391   000808  61                 	db	97	;'a'
   392   000809  20                 	db	32
   393   00080A  63                 	db	99	;'c'
   394   00080B  6F                 	db	111	;'o'
   395   00080C  6E                 	db	110	;'n'
   396   00080D  74                 	db	116	;'t'
   397   00080E  61                 	db	97	;'a'
   398   00080F  72                 	db	114	;'r'
   399   000810  3A                 	db	58	;':'
   400   000811  00                 	db	0
   401   000812                     STR_3:
   402   000812  43                 	db	67	;'C'
   403   000813  75                 	db	117	;'u'
   404   000814  65                 	db	101	;'e'
   405   000815  6E                 	db	110	;'n'
   406   000816  74                 	db	116	;'t'
   407   000817  61                 	db	97	;'a'
   408   000818  20                 	db	32
   409   000819  43                 	db	67	;'C'
   410   00081A  75                 	db	117	;'u'
   411   00081B  6D                 	db	109	;'m'
   412   00081C  70                 	db	112	;'p'
   413   00081D  6C                 	db	108	;'l'
   414   00081E  69                 	db	105	;'i'
   415   00081F  64                 	db	100	;'d'
   416   000820  61                 	db	97	;'a'
   417   000821  00                 	db	0
   418   000822                     STR_12:
   419   000822  56                 	db	86	;'V'
   420   000823  61                 	db	97	;'a'
   421   000824  6C                 	db	108	;'l'
   422   000825  6F                 	db	111	;'o'
   423   000826  72                 	db	114	;'r'
   424   000827  20                 	db	32
   425   000828  6D                 	db	109	;'m'
   426   000829  69                 	db	105	;'i'
   427   00082A  6E                 	db	110	;'n'
   428   00082B  3A                 	db	58	;':'
   429   00082C  20                 	db	32
   430   00082D  30                 	db	48	;'0'
   431   00082E  31                 	db	49	;'1'
   432   00082F  00                 	db	0
   433   000830                     STR_11:
   434   000830  56                 	db	86	;'V'
   435   000831  61                 	db	97	;'a'
   436   000832  6C                 	db	108	;'l'
   437   000833  6F                 	db	111	;'o'
   438   000834  72                 	db	114	;'r'
   439   000835  20                 	db	32
   440   000836  6D                 	db	109	;'m'
   441   000837  61                 	db	97	;'a'
   442   000838  78                 	db	120	;'x'
   443   000839  3A                 	db	58	;':'
   444   00083A  20                 	db	32
   445   00083B  35                 	db	53	;'5'
   446   00083C  39                 	db	57	;'9'
   447   00083D  00                 	db	0
   448   00083E                     STR_5:
   449   00083E  20                 	db	32
   450   00083F  20                 	db	32
   451   000840  20                 	db	32
   452   000841  20                 	db	32
   453   000842  50                 	db	80	;'P'
   454   000843  41                 	db	65	;'A'
   455   000844  52                 	db	82	;'R'
   456   000845  41                 	db	65	;'A'
   457   000846  44                 	db	68	;'D'
   458   000847  41                 	db	65	;'A'
   459   000848  20                 	db	32
   460   000849  44                 	db	68	;'D'
   461   00084A  45                 	db	69	;'E'
   462   00084B  00                 	db	0
   463   00084C                     STR_7:
   464   00084C  20                 	db	32
   465   00084D  42                 	db	66	;'B'
   466   00084E  69                 	db	105	;'i'
   467   00084F  65                 	db	101	;'e'
   468   000850  6E                 	db	110	;'n'
   469   000851  76                 	db	118	;'v'
   470   000852  65                 	db	101	;'e'
   471   000853  6E                 	db	110	;'n'
   472   000854  69                 	db	105	;'i'
   473   000855  64                 	db	100	;'d'
   474   000856  6F                 	db	111	;'o'
   475   000857  20                 	db	32
   476   000858  00                 	db	0
   477   000859                     STR_10:
   478   000859  20                 	db	32
   479   00085A  20                 	db	32
   480   00085B  20                 	db	32
   481   00085C  20                 	db	32
   482   00085D  20                 	db	32
   483   00085E  21                 	db	33
   484   00085F  45                 	db	69	;'E'
   485   000860  72                 	db	114	;'r'
   486   000861  72                 	db	114	;'r'
   487   000862  6F                 	db	111	;'o'
   488   000863  72                 	db	114	;'r'
   489   000864  21                 	db	33
   490   000865  00                 	db	0
   491   000866                     STR_1:
   492   000866  46                 	db	70	;'F'
   493   000867  61                 	db	97	;'a'
   494   000868  6C                 	db	108	;'l'
   495   000869  74                 	db	116	;'t'
   496   00086A  61                 	db	97	;'a'
   497   00086B  6E                 	db	110	;'n'
   498   00086C  74                 	db	116	;'t'
   499   00086D  65                 	db	101	;'e'
   500   00086E  73                 	db	115	;'s'
   501   00086F  3A                 	db	58	;':'
   502   000870  20                 	db	32
   503   000871  00                 	db	0
   504   000872                     STR_8:
   505   000872  20                 	db	32
   506   000873  20                 	db	32
   507   000874  4F                 	db	79	;'O'
   508   000875  70                 	db	112	;'p'
   509   000876  65                 	db	101	;'e'
   510   000877  72                 	db	114	;'r'
   511   000878  61                 	db	97	;'a'
   512   000879  72                 	db	114	;'r'
   513   00087A  69                 	db	105	;'i'
   514   00087B  6F                 	db	111	;'o'
   515   00087C  20                 	db	32
   516   00087D  00                 	db	0
   517   00087E                     STR_4:
   518   00087E  50                 	db	80	;'P'
   519   00087F  72                 	db	114	;'r'
   520   000880  65                 	db	101	;'e'
   521   000881  73                 	db	115	;'s'
   522   000882  69                 	db	105	;'i'
   523   000883  6F                 	db	111	;'o'
   524   000884  6E                 	db	110	;'n'
   525   000885  65                 	db	101	;'e'
   526   000886  20                 	db	32
   527   000887  4F                 	db	79	;'O'
   528   000888  4B                 	db	75	;'K'
   529   000889  00                 	db	0
   530   00088A                     STR_2:
   531   00088A  4F                 	db	79	;'O'
   532   00088B  62                 	db	98	;'b'
   533   00088C  6A                 	db	106	;'j'
   534   00088D  65                 	db	101	;'e'
   535   00088E  74                 	db	116	;'t'
   536   00088F  69                 	db	105	;'i'
   537   000890  76                 	db	118	;'v'
   538   000891  6F                 	db	111	;'o'
   539   000892  3A                 	db	58	;':'
   540   000893  20                 	db	32
   541   000894  00                 	db	0
   542   000895                     STR_6:
   543   000895  45                 	db	69	;'E'
   544   000896  4D                 	db	77	;'M'
   545   000897  45                 	db	69	;'E'
   546   000898  52                 	db	82	;'R'
   547   000899  47                 	db	71	;'G'
   548   00089A  45                 	db	69	;'E'
   549   00089B  4E                 	db	78	;'N'
   550   00089C  43                 	db	67	;'C'
   551   00089D  49                 	db	73	;'I'
   552   00089E  41                 	db	65	;'A'
   553   00089F  00                 	db	0
   554   0008A0  00                 	db	0	; dummy byte at the end
   555   000002                     __activetblptr  equ	2
   556                           
   557                           ; #config settings
   558                           
   559                           	psect	cinit
   560   001376                     __pcinit:
   561                           	callstack 0
   562   001376                     start_initialization:
   563                           	callstack 0
   564   001376                     __initialization:
   565                           	callstack 0
   566                           
   567                           ; Initialize objects allocated to COMRAM (17 bytes)
   568                           ; load TBLPTR registers with __pidataCOMRAM
   569   001376  0EDC               	movlw	low __pidataCOMRAM
   570   001378  6EF6               	movwf	tblptrl,c
   571   00137A  0E15               	movlw	high __pidataCOMRAM
   572   00137C  6EF7               	movwf	tblptrh,c
   573   00137E  0E00               	movlw	low (__pidataCOMRAM shr (0+16))
   574   001380  6EF8               	movwf	tblptru,c
   575   001382  EE00  F027         	lfsr	0,__pdataCOMRAM
   576   001386  EE10 F011          	lfsr	1,17
   577   00138A                     copy_data0:
   578   00138A  0009               	tblrd		*+
   579   00138C  CFF5 FFEE          	movff	tablat,postinc0
   580   001390  50E5               	movf	postdec1,w,c
   581   001392  50E1               	movf	fsr1l,w,c
   582   001394  E1FA               	bnz	copy_data0
   583                           
   584                           ; Clear objects allocated to COMRAM (13 bytes)
   585   001396  EE00  F038         	lfsr	0,__pbssCOMRAM
   586   00139A  0E0D               	movlw	13
   587   00139C                     clear_0:
   588   00139C  6AEE               	clrf	postinc0,c
   589   00139E  06E8               	decf	wreg,f,c
   590   0013A0  E1FD               	bnz	clear_0
   591   0013A2                     end_of_initialization:
   592                           	callstack 0
   593   0013A2                     __end_of__initialization:
   594                           	callstack 0
   595   0013A2  9046               	bcf	int$flags,0,c	;clear compiler interrupt flag (level 1)
   596   0013A4  9246               	bcf	int$flags,1,c	;clear compiler interrupt flag (level 2)
   597   0013A6  0E00               	movlw	low (__Lmediumconst shr (0+16))
   598   0013A8  6EF8               	movwf	tblptru,c
   599   0013AA  0100               	movlb	0
   600   0013AC  EF76  F005         	goto	_main	;jump to C main() function
   601                           
   602                           	psect	bssCOMRAM
   603   000038                     __pbssCOMRAM:
   604                           	callstack 0
   605   000038                     _piezasObjetivo:
   606                           	callstack 0
   607   000038                     	ds	2
   608   00003A                     _decenasRGB:
   609                           	callstack 0
   610   00003A                     	ds	2
   611   00003C                     _unidades7Seg:
   612                           	callstack 0
   613   00003C                     	ds	2
   614   00003E                     _piezasTotalesContadas:
   615                           	callstack 0
   616   00003E                     	ds	2
   617   000040                     _segundosSinActividad:
   618                           	callstack 0
   619   000040                     	ds	1
   620   000041                     _teclaLeida:
   621                           	callstack 0
   622   000041                     	ds	1
   623   000042                     _flagConteoActivo:
   624                           	callstack 0
   625   000042                     	ds	1
   626   000043                     _modoEdicionObjetivo:
   627                           	callstack 0
   628   000043                     	ds	1
   629   000044                     _indiceDigitoObjetivo:
   630                           	callstack 0
   631   000044                     	ds	1
   632                           
   633                           	psect	dataCOMRAM
   634   000027                     __pdataCOMRAM:
   635                           	callstack 0
   636   000027                     _interfaz:
   637                           	callstack 0
   638   000027                     	ds	1
   639   000028                     _Marco:
   640                           	callstack 0
   641   000028                     	ds	8
   642   000030                     _Estrella:
   643                           	callstack 0
   644   000030                     	ds	8
   645                           
   646                           	psect	cstackBANK0
   647   000060                     __pcstackBANK0:
   648                           	callstack 0
   649   000060                     ??_main:
   650                           
   651                           ; 1 bytes @ 0x0
   652   000060                     	ds	2
   653                           
   654                           	psect	cstackCOMRAM
   655   000001                     __pcstackCOMRAM:
   656                           	callstack 0
   657   000001                     ?___lwdiv:
   658                           	callstack 0
   659   000001                     i2___lbmod@divisor:
   660                           	callstack 0
   661   000001                     ___lwdiv@dividend:
   662                           	callstack 0
   663   000001                     ??i2_RetardoLCD:
   664                           
   665                           ; 1 bytes @ 0x0
   666   000001                     	ds	1
   667   000002                     i2RetardoLCD@a:
   668                           	callstack 0
   669   000002                     i2___lbmod@dividend:
   670                           	callstack 0
   671   000002                     
   672                           ; 1 bytes @ 0x1
   673   000002                     	ds	1
   674   000003                     i2___lbmod@counter:
   675                           	callstack 0
   676   000003                     ___lwdiv@divisor:
   677                           	callstack 0
   678   000003                     ??i2_EnviaDato:
   679                           
   680                           ; 1 bytes @ 0x2
   681   000003                     	ds	1
   682   000004                     i2EnviaDato@a:
   683                           	callstack 0
   684   000004                     i2___lbmod@rem:
   685                           	callstack 0
   686                           
   687                           ; 1 bytes @ 0x3
   688   000004                     	ds	1
   689   000005                     i2EscribeLCD_c@a:
   690                           	callstack 0
   691   000005                     i2DireccionaLCD@a:
   692                           	callstack 0
   693   000005                     i2___lbdiv@divisor:
   694                           	callstack 0
   695   000005                     ___lwdiv@quotient:
   696                           	callstack 0
   697   000005                     
   698                           ; 1 bytes @ 0x4
   699   000005                     	ds	1
   700   000006                     i2ComandoLCD@a:
   701                           	callstack 0
   702   000006                     i2MensajeLCD_Var@a:
   703                           	callstack 0
   704   000006                     i2___lbdiv@dividend:
   705                           	callstack 0
   706   000006                     
   707                           ; 1 bytes @ 0x5
   708   000006                     	ds	1
   709   000007                     ___lwdiv@counter:
   710                           	callstack 0
   711   000007                     i2___lbdiv@counter:
   712                           	callstack 0
   713   000007                     ??i2_MensajeLCD_Var:
   714   000007                     
   715                           ; 1 bytes @ 0x6
   716   000007                     	ds	1
   717   000008                     i2___lbdiv@quotient:
   718                           	callstack 0
   719   000008                     i2MensajeLCD_Var@i:
   720                           	callstack 0
   721                           
   722                           ; 2 bytes @ 0x7
   723   000008                     	ds	1
   724   000009                     i2EscribeLCD_n8@b:
   725                           	callstack 0
   726                           
   727                           ; 1 bytes @ 0x8
   728   000009                     	ds	1
   729   00000A                     i2EscribeLCD_n8@centena:
   730                           	callstack 0
   731   00000A                     
   732                           ; 1 bytes @ 0x9
   733   00000A                     	ds	1
   734   00000B                     i2EscribeLCD_n8@decena:
   735                           	callstack 0
   736                           
   737                           ; 1 bytes @ 0xA
   738   00000B                     	ds	1
   739   00000C                     i2EscribeLCD_n8@unidad:
   740                           	callstack 0
   741                           
   742                           ; 1 bytes @ 0xB
   743   00000C                     	ds	1
   744   00000D                     i2EscribeLCD_n8@a:
   745                           	callstack 0
   746                           
   747                           ; 1 bytes @ 0xC
   748   00000D                     	ds	1
   749   00000E                     ??_ConfigPregunta:
   750                           
   751                           ; 1 bytes @ 0xD
   752   00000E                     	ds	2
   753   000010                     ??_ISR:
   754                           
   755                           ; 1 bytes @ 0xF
   756   000010                     	ds	10
   757   00001A                     ConfiguraLCD@a:
   758                           	callstack 0
   759   00001A                     ___lbmod@divisor:
   760                           	callstack 0
   761   00001A                     ??_RetardoLCD:
   762   00001A                     
   763                           ; 1 bytes @ 0x19
   764   00001A                     	ds	1
   765   00001B                     RetardoLCD@a:
   766                           	callstack 0
   767   00001B                     ___lbmod@dividend:
   768                           	callstack 0
   769   00001B                     
   770                           ; 1 bytes @ 0x1A
   771   00001B                     	ds	1
   772   00001C                     ___lbmod@counter:
   773                           	callstack 0
   774   00001C                     ??_EnviaDato:
   775                           
   776                           ; 1 bytes @ 0x1B
   777   00001C                     	ds	1
   778   00001D                     EnviaDato@a:
   779                           	callstack 0
   780   00001D                     ___lbmod@rem:
   781                           	callstack 0
   782                           
   783                           ; 1 bytes @ 0x1C
   784   00001D                     	ds	1
   785   00001E                     EscribeLCD_c@a:
   786                           	callstack 0
   787   00001E                     DireccionaLCD@a:
   788                           	callstack 0
   789   00001E                     ___lbdiv@divisor:
   790                           	callstack 0
   791   00001E                     
   792                           ; 1 bytes @ 0x1D
   793   00001E                     	ds	1
   794   00001F                     ComandoLCD@a:
   795                           	callstack 0
   796   00001F                     MensajeLCD_Var@a:
   797                           	callstack 0
   798   00001F                     CrearCaracter@arreglo:
   799                           	callstack 0
   800   00001F                     ___lbdiv@dividend:
   801                           	callstack 0
   802   00001F                     
   803                           ; 1 bytes @ 0x1E
   804   00001F                     	ds	1
   805   000020                     CrearCaracter@posicionCGRAM:
   806                           	callstack 0
   807   000020                     ___lbdiv@counter:
   808                           	callstack 0
   809   000020                     ??_MensajeLCD_Var:
   810   000020                     
   811                           ; 1 bytes @ 0x1F
   812   000020                     	ds	1
   813   000021                     ___lbdiv@quotient:
   814                           	callstack 0
   815   000021                     MensajeLCD_Var@i:
   816                           	callstack 0
   817   000021                     CrearCaracter@i:
   818                           	callstack 0
   819   000021                     
   820                           ; 1 bytes @ 0x20
   821   000021                     	ds	1
   822   000022                     EscribeLCD_n8@b:
   823                           	callstack 0
   824                           
   825                           ; 1 bytes @ 0x21
   826   000022                     	ds	1
   827   000023                     EscribeLCD_n8@centena:
   828                           	callstack 0
   829   000023                     ??_Bienvenida:
   830   000023                     ??_PreguntaAlUsuario:
   831   000023                     
   832                           ; 1 bytes @ 0x22
   833   000023                     	ds	1
   834   000024                     EscribeLCD_n8@decena:
   835                           	callstack 0
   836                           
   837                           ; 1 bytes @ 0x23
   838   000024                     	ds	1
   839   000025                     EscribeLCD_n8@unidad:
   840                           	callstack 0
   841   000025                     Bienvenida@i:
   842                           	callstack 0
   843                           
   844                           ; 2 bytes @ 0x24
   845   000025                     	ds	1
   846   000026                     EscribeLCD_n8@a:
   847                           	callstack 0
   848                           
   849                           ; 1 bytes @ 0x25
   850   000026                     	ds	1
   851                           
   852 ;;
   853 ;;Main: autosize = 0, tempsize = 2, incstack = 0, save=0
   854 ;;
   855 ;; *************** function _main *****************
   856 ;; Defined at:
   857 ;;		line 66 in file "Lab4.c"
   858 ;; Parameters:    Size  Location     Type
   859 ;;		None
   860 ;; Auto vars:     Size  Location     Type
   861 ;;		None
   862 ;; Return value:  Size  Location     Type
   863 ;;                  1    wreg      void 
   864 ;; Registers used:
   865 ;;		wreg, fsr2l, fsr2h, status,2, status,0, tblptrl, tblptrh, tblptru, prodl, prodh, cstack
   866 ;; Tracked objects:
   867 ;;		On entry : 0/0
   868 ;;		On exit  : 0/0
   869 ;;		Unchanged: 0/0
   870 ;; Data sizes:     COMRAM   BANK0   BANK1   BANK2   BANK3   BANK4   BANK5   BANK6   BANK7
   871 ;;      Params:         0       0       0       0       0       0       0       0       0
   872 ;;      Locals:         0       0       0       0       0       0       0       0       0
   873 ;;      Temps:          0       2       0       0       0       0       0       0       0
   874 ;;      Totals:         0       2       0       0       0       0       0       0       0
   875 ;;Total ram usage:        2 bytes
   876 ;; Hardware stack levels required when called: 15
   877 ;; This function calls:
   878 ;;		_Bienvenida
   879 ;;		_BorraLCD
   880 ;;		_ConfigVariables
   881 ;;		_DireccionaLCD
   882 ;;		_EscribeLCD_n8
   883 ;;		_MensajeLCD_Var
   884 ;;		_OcultarCursor
   885 ;;		_PreguntaAlUsuario
   886 ;; This function is called by:
   887 ;;		Startup code after reset
   888 ;; This function uses a non-reentrant model
   889 ;;
   890                           
   891                           	psect	text0
   892   000AEC                     __ptext0:
   893                           	callstack 0
   894   000AEC                     _main:
   895                           	callstack 16
   896                           
   897                           ;Lab4.c: 68: ConfigVariables();
   898                           
   899                           ;incstack = 0
   900   000AEC  EC42  F00A         	call	_ConfigVariables	;wreg free
   901                           
   902                           ;Lab4.c: 69: modoEdicionObjetivo = 0;
   903   000AF0  6A43               	clrf	_modoEdicionObjetivo^0,c
   904                           
   905                           ;Lab4.c: 72: ADCON1 = 0b00001111;
   906   000AF2  0E0F               	movlw	15
   907   000AF4  6EC1               	movwf	193,c	;volatile
   908                           
   909                           ;Lab4.c: 75: TRISE = 0;
   910   000AF6  6A96               	clrf	150,c	;volatile
   911                           
   912                           ;Lab4.c: 76: LATE = 0b00000111;
   913   000AF8  0E07               	movlw	7
   914   000AFA  6E8D               	movwf	141,c	;volatile
   915                           
   916                           ;Lab4.c: 79: TRISD = 0;
   917   000AFC  6A95               	clrf	149,c	;volatile
   918                           
   919                           ;Lab4.c: 80: LATD = unidades7Seg;
   920   000AFE  C03C  FF8C         	movff	_unidades7Seg,3980	;volatile
   921                           
   922                           ;Lab4.c: 83: TRISA1 = 0;
   923   000B02  9292               	bcf	3986,1,c	;volatile
   924                           
   925                           ;Lab4.c: 84: LATA1 = 0;
   926   000B04  9289               	bcf	3977,1,c	;volatile
   927                           
   928                           ;Lab4.c: 87: TRISA2 = 0;
   929   000B06  9492               	bcf	3986,2,c	;volatile
   930                           
   931                           ;Lab4.c: 88: LATA2 = 0;
   932   000B08  9489               	bcf	3977,2,c	;volatile
   933                           
   934                           ;Lab4.c: 91: TRISA3 = 0;
   935   000B0A  9692               	bcf	3986,3,c	;volatile
   936                           
   937                           ;Lab4.c: 92: LATA3 = 0;
   938   000B0C  9689               	bcf	3977,3,c	;volatile
   939                           
   940                           ;Lab4.c: 93: TRISA4 = 0;
   941   000B0E  9892               	bcf	3986,4,c	;volatile
   942                           
   943                           ;Lab4.c: 96: TRISC1 = 1;
   944   000B10  8294               	bsf	3988,1,c	;volatile
   945                           
   946                           ;Lab4.c: 99: TRISA5 = 0;
   947   000B12  9A92               	bcf	3986,5,c	;volatile
   948                           
   949                           ;Lab4.c: 100: LATA5 = 1;
   950   000B14  8A89               	bsf	3977,5,c	;volatile
   951                           
   952                           ;Lab4.c: 105: T0CON = 0b00000001;
   953   000B16  0E01               	movlw	1
   954   000B18  6ED5               	movwf	213,c	;volatile
   955                           
   956                           ;Lab4.c: 106: TMR0 = 3036;
   957   000B1A  0E0B               	movlw	11
   958   000B1C  6ED7               	movwf	215,c	;volatile
   959   000B1E  0EDC               	movlw	220
   960   000B20  6ED6               	movwf	214,c	;volatile
   961                           
   962                           ;Lab4.c: 107: TMR0IF = 0;
   963   000B22  94F2               	bcf	4082,2,c	;volatile
   964                           
   965                           ;Lab4.c: 108: TMR0IE = 1;
   966   000B24  8AF2               	bsf	4082,5,c	;volatile
   967                           
   968                           ;Lab4.c: 109: TMR0ON = 1;
   969   000B26  8ED5               	bsf	4053,7,c	;volatile
   970                           
   971                           ;Lab4.c: 112: T1CON = 0b00000000;
   972   000B28  6ACD               	clrf	205,c	;volatile
   973                           
   974                           ;Lab4.c: 113: TMR1 = 0;
   975   000B2A  0E00               	movlw	0
   976   000B2C  6ECF               	movwf	207,c	;volatile
   977   000B2E  0E00               	movlw	0
   978   000B30  6ECE               	movwf	206,c	;volatile
   979                           
   980                           ;Lab4.c: 114: TMR1IF = 0;
   981   000B32  909E               	bcf	3998,0,c	;volatile
   982                           
   983                           ;Lab4.c: 115: TMR1IE = 0;
   984   000B34  909D               	bcf	3997,0,c	;volatile
   985                           
   986                           ;Lab4.c: 116: TMR1ON = 0;
   987   000B36  90CD               	bcf	4045,0,c	;volatile
   988                           
   989                           ;Lab4.c: 119: TRISB = 0b11110000;
   990   000B38  0EF0               	movlw	240
   991   000B3A  6E93               	movwf	147,c	;volatile
   992                           
   993                           ;Lab4.c: 120: LATB = 0b00000000;
   994   000B3C  6A8A               	clrf	138,c	;volatile
   995                           
   996                           ;Lab4.c: 121: RBPU = 0;
   997   000B3E  9EF1               	bcf	4081,7,c	;volatile
   998                           
   999                           ;Lab4.c: 122: _delay((unsigned long)((100)*(1000000/4000.0)));
  1000   000B40  0E21               	movlw	33
  1001   000B42  0100               	movlb	0	; () banked
  1002   000B44  6F60               	movwf	??_main& (0+255),b
  1003   000B46  0E76               	movlw	118
  1004   000B48                     u1807:
  1005   000B48  2EE8               	decfsz	wreg,f,c
  1006   000B4A  D7FE               	bra	u1807
  1007   000B4C  2F60               	decfsz	??_main& (0+255),f,b
  1008   000B4E  D7FC               	bra	u1807
  1009   000B50  0000               	nop	
  1010                           
  1011                           ;Lab4.c: 123: RBIF = 0;
  1012   000B52  90F2               	bcf	4082,0,c	;volatile
  1013                           
  1014                           ;Lab4.c: 124: RBIE = 1;
  1015   000B54  86F2               	bsf	4082,3,c	;volatile
  1016                           
  1017                           ;Lab4.c: 127: PEIE = 1;
  1018   000B56  8CF2               	bsf	4082,6,c	;volatile
  1019                           
  1020                           ;Lab4.c: 128: GIE = 1;
  1021   000B58  8EF2               	bsf	4082,7,c	;volatile
  1022                           
  1023                           ;Lab4.c: 132: Bienvenida();
  1024   000B5A  ECB9  F007         	call	_Bienvenida	;wreg free
  1025   000B5E                     l2878:
  1026                           
  1027                           ;Lab4.c: 136: PreguntaAlUsuario();
  1028   000B5E  EC53  F007         	call	_PreguntaAlUsuario	;wreg free
  1029                           
  1030                           ;Lab4.c: 137: OcultarCursor();
  1031   000B62  EC09  F00B         	call	_OcultarCursor	;wreg free
  1032                           
  1033                           ;Lab4.c: 140: MensajeLCD_Var("Faltantes: ");
  1034   000B66  0E66               	movlw	low STR_1
  1035   000B68  6E1F               	movwf	MensajeLCD_Var@a^0,c
  1036   000B6A  EC7D  F009         	call	_MensajeLCD_Var	;wreg free
  1037                           
  1038                           ;Lab4.c: 141: EscribeLCD_n8(piezasObjetivo - piezasTotalesContadas, 2);
  1039   000B6E  0E02               	movlw	2
  1040   000B70  6E22               	movwf	EscribeLCD_n8@b^0,c
  1041   000B72  503E               	movf	_piezasTotalesContadas^0,w,c
  1042   000B74  5C38               	subwf	_piezasObjetivo^0,w,c
  1043   000B76  EC6D  F006         	call	_EscribeLCD_n8
  1044                           
  1045                           ;Lab4.c: 142: DireccionaLCD(0xC0);
  1046   000B7A  0EC0               	movlw	192
  1047   000B7C  ECAF  F00A         	call	_DireccionaLCD
  1048                           
  1049                           ;Lab4.c: 143: MensajeLCD_Var("Objetivo: ");
  1050   000B80  0E8A               	movlw	low STR_2
  1051   000B82  6E1F               	movwf	MensajeLCD_Var@a^0,c
  1052   000B84  EC7D  F009         	call	_MensajeLCD_Var	;wreg free
  1053                           
  1054                           ;Lab4.c: 144: EscribeLCD_n8(piezasObjetivo, 2);
  1055   000B88  0E02               	movlw	2
  1056   000B8A  6E22               	movwf	EscribeLCD_n8@b^0,c
  1057   000B8C  5038               	movf	_piezasObjetivo^0,w,c
  1058   000B8E  EC6D  F006         	call	_EscribeLCD_n8
  1059                           
  1060                           ;Lab4.c: 146: flagConteoActivo = 1;
  1061   000B92  0E01               	movlw	1
  1062   000B94  6E42               	movwf	_flagConteoActivo^0,c
  1063                           
  1064                           ;Lab4.c: 149: while (flagConteoActivo == 1){
  1065   000B96  D099               	goto	l2980
  1066   000B98                     l2894:
  1067                           
  1068                           ;Lab4.c: 152: if(piezasTotalesContadas == piezasObjetivo){
  1069   000B98  5038               	movf	_piezasObjetivo^0,w,c
  1070   000B9A  183E               	xorwf	_piezasTotalesContadas^0,w,c
  1071   000B9C  E128               	bnz	l2918
  1072   000B9E  5039               	movf	(_piezasObjetivo+1)^0,w,c
  1073   000BA0  183F               	xorwf	(_piezasTotalesContadas+1)^0,w,c
  1074   000BA2  A4D8               	btfss	status,2,c
  1075   000BA4  D024               	goto	l2918
  1076                           
  1077                           ;Lab4.c: 155: LATA2 = 1;
  1078   000BA6  8489               	bsf	3977,2,c	;volatile
  1079                           
  1080                           ;Lab4.c: 156: _delay((unsigned long)((1000)*(1000000/4000.0)));
  1081   000BA8  0E02               	movlw	2
  1082   000BAA  0100               	movlb	0	; () banked
  1083   000BAC  6F61               	movwf	(??_main+1)& (0+255),b
  1084   000BAE  0E45               	movlw	69
  1085   000BB0  6F60               	movwf	??_main& (0+255),b
  1086   000BB2  0EA9               	movlw	169
  1087   000BB4                     u1817:
  1088   000BB4  2EE8               	decfsz	wreg,f,c
  1089   000BB6  D7FE               	bra	u1817
  1090   000BB8  2F60               	decfsz	??_main& (0+255),f,b
  1091   000BBA  D7FC               	bra	u1817
  1092   000BBC  2F61               	decfsz	(??_main+1)& (0+255),f,b
  1093   000BBE  D7FA               	bra	u1817
  1094   000BC0  D000               	nop2	
  1095                           
  1096                           ;Lab4.c: 157: LATA2 = 0;
  1097   000BC2  9489               	bcf	3977,2,c	;volatile
  1098                           
  1099                           ;Lab4.c: 160: BorraLCD();
  1100   000BC4  ECD0  F00A         	call	_BorraLCD	;wreg free
  1101                           
  1102                           ;Lab4.c: 161: MensajeLCD_Var("Cuenta Cumplida");
  1103   000BC8  0E12               	movlw	low STR_3
  1104   000BCA  6E1F               	movwf	MensajeLCD_Var@a^0,c
  1105   000BCC  EC7D  F009         	call	_MensajeLCD_Var	;wreg free
  1106                           
  1107                           ;Lab4.c: 162: DireccionaLCD(0xC4);
  1108   000BD0  0EC4               	movlw	196
  1109   000BD2  ECAF  F00A         	call	_DireccionaLCD
  1110                           
  1111                           ;Lab4.c: 163: MensajeLCD_Var("Presione OK");
  1112   000BD6  0E7E               	movlw	low STR_4
  1113   000BD8  6E1F               	movwf	MensajeLCD_Var@a^0,c
  1114   000BDA  EC7D  F009         	call	_MensajeLCD_Var	;wreg free
  1115                           
  1116                           ;Lab4.c: 166: flagConteoActivo = 0;
  1117   000BDE  6A42               	clrf	_flagConteoActivo^0,c
  1118                           
  1119                           ;Lab4.c: 167: teclaLeida = '\0';
  1120   000BE0  6A41               	clrf	_teclaLeida^0,c
  1121   000BE2                     l2914:
  1122   000BE2  0E2A               	movlw	42
  1123   000BE4  1841               	xorwf	_teclaLeida^0,w,c
  1124   000BE6  A4D8               	btfss	status,2,c
  1125   000BE8  D7FC               	goto	l2914
  1126                           
  1127                           ;Lab4.c: 173: ConfigVariables();
  1128   000BEA  EC42  F00A         	call	_ConfigVariables	;wreg free
  1129   000BEE                     l2918:
  1130                           
  1131                           ;Lab4.c: 174: };Lab4.c: 177: if(RC1 == 0 && piezasTotalesContadas != piezasObjetivo){
  1132   000BEE  B282               	btfsc	3970,1,c	;volatile
  1133   000BF0  D009               	goto	l2924
  1134   000BF2  5038               	movf	_piezasObjetivo^0,w,c
  1135   000BF4  183E               	xorwf	_piezasTotalesContadas^0,w,c
  1136   000BF6  E104               	bnz	u1680
  1137   000BF8  5039               	movf	(_piezasObjetivo+1)^0,w,c
  1138   000BFA  183F               	xorwf	(_piezasTotalesContadas+1)^0,w,c
  1139   000BFC  B4D8               	btfsc	status,2,c
  1140   000BFE  D002               	goto	l2924
  1141   000C00                     u1680:
  1142                           
  1143                           ;Lab4.c: 178: segundosSinActividad = 0;
  1144   000C00  6A40               	clrf	_segundosSinActividad^0,c
  1145                           
  1146                           ;Lab4.c: 179: pulsadorListo = 0;
  1147   000C02  6A45               	clrf	_pulsadorListo^0,c
  1148   000C04                     l2924:
  1149                           
  1150                           ;Lab4.c: 180: };Lab4.c: 183: if(pulsadorListo == 0){
  1151   000C04  5045               	movf	_pulsadorListo^0,w,c
  1152   000C06  B4D8               	btfsc	status,2,c
  1153                           
  1154                           ;Lab4.c: 184: if(RC1 == 1){
  1155   000C08  A282               	btfss	3970,1,c	;volatile
  1156   000C0A  D05F               	goto	l2980
  1157                           
  1158                           ;Lab4.c: 185: pulsadorListo = 1;
  1159   000C0C  0E01               	movlw	1
  1160   000C0E  6E45               	movwf	_pulsadorListo^0,c
  1161                           
  1162                           ;Lab4.c: 188: unidades7Seg++;
  1163   000C10  4A3C               	infsnz	_unidades7Seg^0,f,c
  1164   000C12  2A3D               	incf	(_unidades7Seg+1)^0,f,c
  1165                           
  1166                           ;Lab4.c: 189: piezasTotalesContadas++;
  1167   000C14  4A3E               	infsnz	_piezasTotalesContadas^0,f,c
  1168   000C16  2A3F               	incf	(_piezasTotalesContadas+1)^0,f,c
  1169                           
  1170                           ;Lab4.c: 192: if (unidades7Seg == 10){
  1171   000C18  0E0A               	movlw	10
  1172   000C1A  183C               	xorwf	_unidades7Seg^0,w,c
  1173   000C1C  103D               	iorwf	(_unidades7Seg+1)^0,w,c
  1174   000C1E  A4D8               	btfss	status,2,c
  1175   000C20  D01A               	goto	l2950
  1176                           
  1177                           ;Lab4.c: 195: LATA2 = 1;
  1178   000C22  8489               	bsf	3977,2,c	;volatile
  1179                           
  1180                           ;Lab4.c: 196: _delay((unsigned long)((300)*(1000000/4000.0)));
  1181   000C24  0E62               	movlw	98
  1182   000C26  0100               	movlb	0	; () banked
  1183   000C28  6F60               	movwf	??_main& (0+255),b
  1184   000C2A  0E65               	movlw	101
  1185   000C2C                     u1827:
  1186   000C2C  2EE8               	decfsz	wreg,f,c
  1187   000C2E  D7FE               	bra	u1827
  1188   000C30  2F60               	decfsz	??_main& (0+255),f,b
  1189   000C32  D7FC               	bra	u1827
  1190   000C34  D000               	nop2	
  1191                           
  1192                           ;Lab4.c: 197: LATA2 = 0;
  1193   000C36  9489               	bcf	3977,2,c	;volatile
  1194                           
  1195                           ;Lab4.c: 199: unidades7Seg = 0;
  1196   000C38  0E00               	movlw	0
  1197   000C3A  6E3D               	movwf	(_unidades7Seg+1)^0,c
  1198   000C3C  0E00               	movlw	0
  1199   000C3E  6E3C               	movwf	_unidades7Seg^0,c
  1200                           
  1201                           ;Lab4.c: 200: decenasRGB++;
  1202   000C40  4A3A               	infsnz	_decenasRGB^0,f,c
  1203   000C42  2A3B               	incf	(_decenasRGB+1)^0,f,c
  1204                           
  1205                           ;Lab4.c: 202: if (decenasRGB == 6){
  1206   000C44  0E06               	movlw	6
  1207   000C46  183A               	xorwf	_decenasRGB^0,w,c
  1208   000C48  103B               	iorwf	(_decenasRGB+1)^0,w,c
  1209   000C4A  A4D8               	btfss	status,2,c
  1210   000C4C  D004               	goto	l2950
  1211                           
  1212                           ;Lab4.c: 203: decenasRGB = 0;
  1213   000C4E  0E00               	movlw	0
  1214   000C50  6E3B               	movwf	(_decenasRGB+1)^0,c
  1215   000C52  0E00               	movlw	0
  1216   000C54  6E3A               	movwf	_decenasRGB^0,c
  1217   000C56                     l2950:
  1218                           
  1219                           ;Lab4.c: 204: };Lab4.c: 205: };Lab4.c: 208: if(decenasRGB == 0){
  1220   000C56  503A               	movf	_decenasRGB^0,w,c
  1221   000C58  103B               	iorwf	(_decenasRGB+1)^0,w,c
  1222   000C5A  A4D8               	btfss	status,2,c
  1223   000C5C  D002               	goto	l2954
  1224                           
  1225                           ;Lab4.c: 209: LATE = 0b00000001;
  1226   000C5E  0E01               	movlw	1
  1227   000C60  D01A               	goto	L4
  1228   000C62                     l2954:
  1229   000C62  043A               	decf	_decenasRGB^0,w,c
  1230   000C64  103B               	iorwf	(_decenasRGB+1)^0,w,c
  1231   000C66  A4D8               	btfss	status,2,c
  1232   000C68  D002               	goto	l2958
  1233                           
  1234                           ;Lab4.c: 211: LATE = 0b00000101;
  1235   000C6A  0E05               	movlw	5
  1236   000C6C  D014               	goto	L4
  1237   000C6E                     l2958:
  1238   000C6E  0E02               	movlw	2
  1239   000C70  183A               	xorwf	_decenasRGB^0,w,c
  1240   000C72  103B               	iorwf	(_decenasRGB+1)^0,w,c
  1241   000C74  A4D8               	btfss	status,2,c
  1242   000C76  D002               	goto	l2962
  1243                           
  1244                           ;Lab4.c: 213: LATE = 0b00000100;
  1245   000C78  0E04               	movlw	4
  1246   000C7A  D00D               	goto	L4
  1247   000C7C                     l2962:
  1248   000C7C  0E03               	movlw	3
  1249   000C7E  183A               	xorwf	_decenasRGB^0,w,c
  1250   000C80  103B               	iorwf	(_decenasRGB+1)^0,w,c
  1251   000C82  A4D8               	btfss	status,2,c
  1252   000C84  D002               	goto	l2966
  1253                           
  1254                           ;Lab4.c: 215: LATE = 0b00000110;
  1255   000C86  0E06               	movlw	6
  1256   000C88  D006               	goto	L4
  1257   000C8A                     l2966:
  1258   000C8A  0E04               	movlw	4
  1259   000C8C  183A               	xorwf	_decenasRGB^0,w,c
  1260   000C8E  103B               	iorwf	(_decenasRGB+1)^0,w,c
  1261   000C90  A4D8               	btfss	status,2,c
  1262   000C92  D003               	goto	l2970
  1263                           
  1264                           ;Lab4.c: 217: LATE = 0b00000010;
  1265   000C94  0E02               	movlw	2
  1266   000C96                     L4:
  1267   000C96  6E8D               	movwf	141,c	;volatile
  1268                           
  1269                           ;Lab4.c: 218: }else if(decenasRGB == 5){
  1270   000C98  D005               	goto	l255
  1271   000C9A                     l2970:
  1272   000C9A  0E05               	movlw	5
  1273   000C9C  183A               	xorwf	_decenasRGB^0,w,c
  1274   000C9E  103B               	iorwf	(_decenasRGB+1)^0,w,c
  1275   000CA0  B4D8               	btfsc	status,2,c
  1276                           
  1277                           ;Lab4.c: 219: LATE = 0b00000000;
  1278   000CA2  6A8D               	clrf	141,c	;volatile
  1279   000CA4                     l255:
  1280                           
  1281                           ;Lab4.c: 220: };Lab4.c: 223: DireccionaLCD(0x8B);
  1282   000CA4  0E8B               	movlw	139
  1283   000CA6  ECAF  F00A         	call	_DireccionaLCD
  1284                           
  1285                           ;Lab4.c: 224: EscribeLCD_n8(piezasObjetivo - piezasTotalesContadas, 2);
  1286   000CAA  0E02               	movlw	2
  1287   000CAC  6E22               	movwf	EscribeLCD_n8@b^0,c
  1288   000CAE  503E               	movf	_piezasTotalesContadas^0,w,c
  1289   000CB0  5C38               	subwf	_piezasObjetivo^0,w,c
  1290   000CB2  EC6D  F006         	call	_EscribeLCD_n8
  1291                           
  1292                           ;Lab4.c: 227: LATD = unidades7Seg;
  1293   000CB6  C03C  FF8C         	movff	_unidades7Seg,3980	;volatile
  1294                           
  1295                           ;Lab4.c: 229: _delay((unsigned long)((500)*(1000000/4000.0)));
  1296   000CBA  0EA3               	movlw	163
  1297   000CBC  0100               	movlb	0	; () banked
  1298   000CBE  6F60               	movwf	??_main& (0+255),b
  1299   000CC0  0E55               	movlw	85
  1300   000CC2                     u1837:
  1301   000CC2  2EE8               	decfsz	wreg,f,c
  1302   000CC4  D7FE               	bra	u1837
  1303   000CC6  2F60               	decfsz	??_main& (0+255),f,b
  1304   000CC8  D7FC               	bra	u1837
  1305   000CCA                     l2980:
  1306   000CCA  0442               	decf	_flagConteoActivo^0,w,c
  1307   000CCC  B4D8               	btfsc	status,2,c
  1308   000CCE  D764               	goto	l2894
  1309                           
  1310                           ;Lab4.c: 230: };Lab4.c: 231: };Lab4.c: 232: };Lab4.c: 235: LATE = 0b00000001;
  1311   000CD0  0E01               	movlw	1
  1312   000CD2  6E8D               	movwf	141,c	;volatile
  1313                           
  1314                           ;Lab4.c: 236: LATD = unidades7Seg;
  1315   000CD4  C03C  FF8C         	movff	_unidades7Seg,3980	;volatile
  1316   000CD8  D742               	goto	l2878
  1317   000CDA                     __end_of_main:
  1318                           	callstack 0
  1319                           
  1320 ;; *************** function _PreguntaAlUsuario *****************
  1321 ;; Defined at:
  1322 ;;		line 472 in file "Lab4.c"
  1323 ;; Parameters:    Size  Location     Type
  1324 ;;		None
  1325 ;; Auto vars:     Size  Location     Type
  1326 ;;		None
  1327 ;; Return value:  Size  Location     Type
  1328 ;;                  1    wreg      void 
  1329 ;; Registers used:
  1330 ;;		wreg, fsr2l, fsr2h, status,2, status,0, tblptrl, tblptrh, tblptru, prodl, prodh, cstack
  1331 ;; Tracked objects:
  1332 ;;		On entry : 0/0
  1333 ;;		On exit  : 0/0
  1334 ;;		Unchanged: 0/0
  1335 ;; Data sizes:     COMRAM   BANK0   BANK1   BANK2   BANK3   BANK4   BANK5   BANK6   BANK7
  1336 ;;      Params:         0       0       0       0       0       0       0       0       0
  1337 ;;      Locals:         0       0       0       0       0       0       0       0       0
  1338 ;;      Temps:          2       0       0       0       0       0       0       0       0
  1339 ;;      Totals:         2       0       0       0       0       0       0       0       0
  1340 ;;Total ram usage:        2 bytes
  1341 ;; Hardware stack levels used: 1
  1342 ;; Hardware stack levels required when called: 14
  1343 ;; This function calls:
  1344 ;;		_BorraLCD
  1345 ;;		_CrearCaracter
  1346 ;;		_DireccionaLCD
  1347 ;;		_EscribeLCD_c
  1348 ;;		_MensajeLCD_Var
  1349 ;;		_MostrarCursor
  1350 ;;		_OcultarCursor
  1351 ;; This function is called by:
  1352 ;;		_main
  1353 ;; This function uses a non-reentrant model
  1354 ;;
  1355                           
  1356                           	psect	text1
  1357   000EA6                     __ptext1:
  1358                           	callstack 0
  1359   000EA6                     _PreguntaAlUsuario:
  1360                           	callstack 16
  1361                           
  1362                           ;Lab4.c: 474: CrearCaracter(Marco, 1);
  1363                           
  1364                           ;incstack = 0
  1365                           ;Lab4.c: 473: while(1){
  1366   000EA6  0E28               	movlw	low _Marco
  1367   000EA8  6E1F               	movwf	CrearCaracter@arreglo^0,c
  1368   000EAA  0E01               	movlw	1
  1369   000EAC  6E20               	movwf	CrearCaracter@posicionCGRAM^0,c
  1370   000EAE  EC5D  F008         	call	_CrearCaracter	;wreg free
  1371                           
  1372                           ;Lab4.c: 475: indiceDigitoObjetivo = 0;
  1373   000EB2  6A44               	clrf	_indiceDigitoObjetivo^0,c
  1374                           
  1375                           ;Lab4.c: 478: BorraLCD();
  1376   000EB4  ECD0  F00A         	call	_BorraLCD	;wreg free
  1377                           
  1378                           ;Lab4.c: 479: MensajeLCD_Var("Piezas a contar:");
  1379   000EB8  0E01               	movlw	low STR_9
  1380   000EBA  6E1F               	movwf	MensajeLCD_Var@a^0,c
  1381   000EBC  EC7D  F009         	call	_MensajeLCD_Var	;wreg free
  1382                           
  1383                           ;Lab4.c: 480: DireccionaLCD(0xC7);
  1384   000EC0  0EC7               	movlw	199
  1385   000EC2  ECAF  F00A         	call	_DireccionaLCD
  1386                           
  1387                           ;Lab4.c: 481: EscribeLCD_c(1);
  1388   000EC6  0E01               	movlw	1
  1389   000EC8  ECA4  F00A         	call	_EscribeLCD_c
  1390                           
  1391                           ;Lab4.c: 482: EscribeLCD_c(1);
  1392   000ECC  0E01               	movlw	1
  1393   000ECE  ECA4  F00A         	call	_EscribeLCD_c
  1394                           
  1395                           ;Lab4.c: 483: DireccionaLCD(0xC7);
  1396   000ED2  0EC7               	movlw	199
  1397   000ED4  ECAF  F00A         	call	_DireccionaLCD
  1398                           
  1399                           ;Lab4.c: 484: MostrarCursor();
  1400   000ED8  EC05  F00B         	call	_MostrarCursor	;wreg free
  1401                           
  1402                           ;Lab4.c: 486: modoEdicionObjetivo = 1;
  1403   000EDC  0E01               	movlw	1
  1404   000EDE  6E43               	movwf	_modoEdicionObjetivo^0,c
  1405                           
  1406                           ;Lab4.c: 487: teclaLeida = '\0';
  1407   000EE0  6A41               	clrf	_teclaLeida^0,c
  1408   000EE2                     l2374:
  1409   000EE2  0E2A               	movlw	42
  1410   000EE4  1841               	xorwf	_teclaLeida^0,w,c
  1411   000EE6  A4D8               	btfss	status,2,c
  1412   000EE8  D7FC               	goto	l2374
  1413                           
  1414                           ;Lab4.c: 492: };Lab4.c: 495: if((piezasObjetivo > 59) || (piezasObjetivo == 0)){
  1415   000EEA  5039               	movf	(_piezasObjetivo+1)^0,w,c
  1416   000EEC  E108               	bnz	l340
  1417   000EEE  0E3C               	movlw	60
  1418   000EF0  5C38               	subwf	_piezasObjetivo^0,w,c
  1419   000EF2  B0D8               	btfsc	status,0,c
  1420   000EF4  D004               	goto	u1050
  1421   000EF6  5038               	movf	_piezasObjetivo^0,w,c
  1422   000EF8  1039               	iorwf	(_piezasObjetivo+1)^0,w,c
  1423   000EFA  A4D8               	btfss	status,2,c
  1424   000EFC  D034               	goto	l338
  1425   000EFE                     u1050:
  1426   000EFE                     l340:
  1427                           
  1428                           ;Lab4.c: 496: modoEdicionObjetivo = 0;
  1429   000EFE  6A43               	clrf	_modoEdicionObjetivo^0,c
  1430                           
  1431                           ;Lab4.c: 497: teclaLeida = '\0';
  1432   000F00  6A41               	clrf	_teclaLeida^0,c
  1433                           
  1434                           ;Lab4.c: 498: piezasObjetivo = 0;
  1435   000F02  0E00               	movlw	0
  1436   000F04  6E39               	movwf	(_piezasObjetivo+1)^0,c
  1437   000F06  0E00               	movlw	0
  1438   000F08  6E38               	movwf	_piezasObjetivo^0,c
  1439                           
  1440                           ;Lab4.c: 501: BorraLCD();
  1441   000F0A  ECD0  F00A         	call	_BorraLCD	;wreg free
  1442                           
  1443                           ;Lab4.c: 502: OcultarCursor();
  1444   000F0E  EC09  F00B         	call	_OcultarCursor	;wreg free
  1445                           
  1446                           ;Lab4.c: 503: MensajeLCD_Var("     !Error!");
  1447   000F12  0E59               	movlw	low STR_10
  1448   000F14  6E1F               	movwf	MensajeLCD_Var@a^0,c
  1449   000F16  EC7D  F009         	call	_MensajeLCD_Var	;wreg free
  1450                           
  1451                           ;Lab4.c: 504: _delay((unsigned long)((1000)*(1000000/4000.0)));
  1452   000F1A  0E02               	movlw	2
  1453   000F1C  6E24               	movwf	(??_PreguntaAlUsuario+1)^0,c
  1454   000F1E  0E45               	movlw	69
  1455   000F20  6E23               	movwf	??_PreguntaAlUsuario^0,c
  1456   000F22  0EAA               	movlw	170
  1457   000F24                     u1847:
  1458   000F24  2EE8               	decfsz	wreg,f,c
  1459   000F26  D7FE               	bra	u1847
  1460   000F28  2E23               	decfsz	??_PreguntaAlUsuario^0,f,c
  1461   000F2A  D7FC               	bra	u1847
  1462   000F2C  2E24               	decfsz	(??_PreguntaAlUsuario+1)^0,f,c
  1463   000F2E  D7FA               	bra	u1847
  1464                           
  1465                           ;Lab4.c: 505: BorraLCD();
  1466   000F30  ECD0  F00A         	call	_BorraLCD	;wreg free
  1467                           
  1468                           ;Lab4.c: 506: MensajeLCD_Var("Valor max: 59");
  1469   000F34  0E30               	movlw	low STR_11
  1470   000F36  6E1F               	movwf	MensajeLCD_Var@a^0,c
  1471   000F38  EC7D  F009         	call	_MensajeLCD_Var	;wreg free
  1472                           
  1473                           ;Lab4.c: 507: DireccionaLCD(0xC0);
  1474   000F3C  0EC0               	movlw	192
  1475   000F3E  ECAF  F00A         	call	_DireccionaLCD
  1476                           
  1477                           ;Lab4.c: 508: MensajeLCD_Var("Valor min: 01");
  1478   000F42  0E22               	movlw	low STR_12
  1479   000F44  6E1F               	movwf	MensajeLCD_Var@a^0,c
  1480   000F46  EC7D  F009         	call	_MensajeLCD_Var	;wreg free
  1481                           
  1482                           ;Lab4.c: 509: _delay((unsigned long)((2000)*(1000000/4000.0)));
  1483   000F4A  0E03               	movlw	3
  1484   000F4C  6E24               	movwf	(??_PreguntaAlUsuario+1)^0,c
  1485   000F4E  0E8A               	movlw	138
  1486   000F50  6E23               	movwf	??_PreguntaAlUsuario^0,c
  1487   000F52  0E56               	movlw	86
  1488   000F54                     u1857:
  1489   000F54  2EE8               	decfsz	wreg,f,c
  1490   000F56  D7FE               	bra	u1857
  1491   000F58  2E23               	decfsz	??_PreguntaAlUsuario^0,f,c
  1492   000F5A  D7FC               	bra	u1857
  1493   000F5C  2E24               	decfsz	(??_PreguntaAlUsuario+1)^0,f,c
  1494   000F5E  D7FA               	bra	u1857
  1495                           
  1496                           ;Lab4.c: 510: BorraLCD();
  1497   000F60  ECD0  F00A         	call	_BorraLCD	;wreg free
  1498                           
  1499                           ;Lab4.c: 511: }else{
  1500   000F64  D7A0               	goto	__ptext1
  1501   000F66                     l338:
  1502                           
  1503                           ;Lab4.c: 513: modoEdicionObjetivo = 0;
  1504   000F66  6A43               	clrf	_modoEdicionObjetivo^0,c
  1505                           
  1506                           ;Lab4.c: 514: indiceDigitoObjetivo = 0;
  1507   000F68  6A44               	clrf	_indiceDigitoObjetivo^0,c
  1508                           
  1509                           ;Lab4.c: 515: BorraLCD();
  1510   000F6A  ECD0  F00A         	call	_BorraLCD	;wreg free
  1511                           
  1512                           ;Lab4.c: 516: teclaLeida = '\0';
  1513   000F6E  6A41               	clrf	_teclaLeida^0,c
  1514                           
  1515                           ;Lab4.c: 517: break;
  1516   000F70  0012               	return		;funcret
  1517   000F72                     __end_of_PreguntaAlUsuario:
  1518                           	callstack 0
  1519                           
  1520 ;; *************** function _MostrarCursor *****************
  1521 ;; Defined at:
  1522 ;;		line 326 in file "LibLCDXC8.h"
  1523 ;; Parameters:    Size  Location     Type
  1524 ;;		None
  1525 ;; Auto vars:     Size  Location     Type
  1526 ;;		None
  1527 ;; Return value:  Size  Location     Type
  1528 ;;                  1    wreg      void 
  1529 ;; Registers used:
  1530 ;;		wreg, status,2, status,0, cstack
  1531 ;; Tracked objects:
  1532 ;;		On entry : 0/0
  1533 ;;		On exit  : 0/0
  1534 ;;		Unchanged: 0/0
  1535 ;; Data sizes:     COMRAM   BANK0   BANK1   BANK2   BANK3   BANK4   BANK5   BANK6   BANK7
  1536 ;;      Params:         0       0       0       0       0       0       0       0       0
  1537 ;;      Locals:         0       0       0       0       0       0       0       0       0
  1538 ;;      Temps:          0       0       0       0       0       0       0       0       0
  1539 ;;      Totals:         0       0       0       0       0       0       0       0       0
  1540 ;;Total ram usage:        0 bytes
  1541 ;; Hardware stack levels used: 1
  1542 ;; Hardware stack levels required when called: 13
  1543 ;; This function calls:
  1544 ;;		_ComandoLCD
  1545 ;; This function is called by:
  1546 ;;		_PreguntaAlUsuario
  1547 ;; This function uses a non-reentrant model
  1548 ;;
  1549                           
  1550                           	psect	text2
  1551   00160A                     __ptext2:
  1552                           	callstack 0
  1553   00160A                     _MostrarCursor:
  1554                           	callstack 16
  1555                           
  1556                           ;LibLCDXC8.h: 327: ComandoLCD(0xF);
  1557                           
  1558                           ;incstack = 0
  1559   00160A  0E0F               	movlw	15
  1560   00160C  EC10  F00A         	call	_ComandoLCD
  1561   001610  0012               	return		;funcret
  1562   001612                     __end_of_MostrarCursor:
  1563                           	callstack 0
  1564                           
  1565 ;; *************** function _EscribeLCD_n8 *****************
  1566 ;; Defined at:
  1567 ;;		line 149 in file "LibLCDXC8.h"
  1568 ;; Parameters:    Size  Location     Type
  1569 ;;  a               1    wreg     unsigned char 
  1570 ;;  b               1   33[COMRAM] unsigned char 
  1571 ;; Auto vars:     Size  Location     Type
  1572 ;;  a               1   37[COMRAM] unsigned char 
  1573 ;;  unidad          1   36[COMRAM] unsigned char 
  1574 ;;  decena          1   35[COMRAM] unsigned char 
  1575 ;;  centena         1   34[COMRAM] unsigned char 
  1576 ;; Return value:  Size  Location     Type
  1577 ;;                  1    wreg      void 
  1578 ;; Registers used:
  1579 ;;		wreg, status,2, status,0, cstack
  1580 ;; Tracked objects:
  1581 ;;		On entry : 0/0
  1582 ;;		On exit  : 0/0
  1583 ;;		Unchanged: 0/0
  1584 ;; Data sizes:     COMRAM   BANK0   BANK1   BANK2   BANK3   BANK4   BANK5   BANK6   BANK7
  1585 ;;      Params:         1       0       0       0       0       0       0       0       0
  1586 ;;      Locals:         4       0       0       0       0       0       0       0       0
  1587 ;;      Temps:          0       0       0       0       0       0       0       0       0
  1588 ;;      Totals:         5       0       0       0       0       0       0       0       0
  1589 ;;Total ram usage:        5 bytes
  1590 ;; Hardware stack levels used: 1
  1591 ;; Hardware stack levels required when called: 10
  1592 ;; This function calls:
  1593 ;;		_EnviaDato
  1594 ;;		_HabilitaLCD
  1595 ;;		_RetardoLCD
  1596 ;;		___lbdiv
  1597 ;;		___lbmod
  1598 ;; This function is called by:
  1599 ;;		_main
  1600 ;; This function uses a non-reentrant model
  1601 ;;
  1602                           
  1603                           	psect	text3
  1604   000CDA                     __ptext3:
  1605                           	callstack 0
  1606   000CDA                     _EscribeLCD_n8:
  1607                           	callstack 20
  1608                           
  1609                           ;incstack = 0
  1610                           ;EscribeLCD_n8@a stored from wreg
  1611   000CDA  6E26               	movwf	EscribeLCD_n8@a^0,c
  1612                           
  1613                           ;LibLCDXC8.h: 154: unsigned char centena,decena,unidad;;LibLCDXC8.h: 155: LATA4=1;
  1614   000CDC  8889               	bsf	3977,4,c	;volatile
  1615                           
  1616                           ;LibLCDXC8.h: 156: switch(b){
  1617   000CDE  D065               	goto	l2308
  1618   000CE0                     l2276:
  1619   000CE0  0E0A               	movlw	10
  1620   000CE2  6E1A               	movwf	___lbmod@divisor^0,c
  1621   000CE4  5026               	movf	EscribeLCD_n8@a^0,w,c
  1622   000CE6  EC70  F00A         	call	___lbmod
  1623   000CEA  6E25               	movwf	EscribeLCD_n8@unidad^0,c
  1624                           
  1625                           ;LibLCDXC8.h: 158: EnviaDato(unidad+48);
  1626   000CEC  5025               	movf	EscribeLCD_n8@unidad^0,w,c
  1627   000CEE  0F30               	addlw	48
  1628   000CF0  EC37  F009         	call	_EnviaDato
  1629                           
  1630                           ;LibLCDXC8.h: 159: HabilitaLCD();
  1631   000CF4  ECF7  F00A         	call	_HabilitaLCD	;wreg free
  1632                           
  1633                           ;LibLCDXC8.h: 160: RetardoLCD(4);
  1634   000CF8  0E04               	movlw	4
  1635   000CFA  ECB8  F008         	call	_RetardoLCD
  1636                           
  1637                           ;LibLCDXC8.h: 161: break;
  1638   000CFE  0012               	return	
  1639   000D00                     l2282:
  1640   000D00  0E0A               	movlw	10
  1641   000D02  6E1E               	movwf	___lbdiv@divisor^0,c
  1642   000D04  0E64               	movlw	100
  1643   000D06  6E1A               	movwf	___lbmod@divisor^0,c
  1644   000D08  5026               	movf	EscribeLCD_n8@a^0,w,c
  1645   000D0A  EC70  F00A         	call	___lbmod
  1646   000D0E  ECD8  F009         	call	___lbdiv
  1647   000D12  6E24               	movwf	EscribeLCD_n8@decena^0,c
  1648                           
  1649                           ;LibLCDXC8.h: 163: unidad=a%10;
  1650   000D14  0E0A               	movlw	10
  1651   000D16  6E1A               	movwf	___lbmod@divisor^0,c
  1652   000D18  5026               	movf	EscribeLCD_n8@a^0,w,c
  1653   000D1A  EC70  F00A         	call	___lbmod
  1654   000D1E  6E25               	movwf	EscribeLCD_n8@unidad^0,c
  1655                           
  1656                           ;LibLCDXC8.h: 164: EnviaDato(decena+48);
  1657   000D20  5024               	movf	EscribeLCD_n8@decena^0,w,c
  1658   000D22  0F30               	addlw	48
  1659   000D24  EC37  F009         	call	_EnviaDato
  1660                           
  1661                           ;LibLCDXC8.h: 165: HabilitaLCD();
  1662   000D28  ECF7  F00A         	call	_HabilitaLCD	;wreg free
  1663                           
  1664                           ;LibLCDXC8.h: 166: RetardoLCD(4);
  1665   000D2C  0E04               	movlw	4
  1666   000D2E  ECB8  F008         	call	_RetardoLCD
  1667                           
  1668                           ;LibLCDXC8.h: 167: EnviaDato(unidad+48);
  1669   000D32  5025               	movf	EscribeLCD_n8@unidad^0,w,c
  1670   000D34  0F30               	addlw	48
  1671   000D36  EC37  F009         	call	_EnviaDato
  1672                           
  1673                           ;LibLCDXC8.h: 168: HabilitaLCD();
  1674   000D3A  ECF7  F00A         	call	_HabilitaLCD	;wreg free
  1675                           
  1676                           ;LibLCDXC8.h: 169: RetardoLCD(4);
  1677   000D3E  0E04               	movlw	4
  1678   000D40  ECB8  F008         	call	_RetardoLCD
  1679                           
  1680                           ;LibLCDXC8.h: 170: break;
  1681   000D44  0012               	return	
  1682   000D46                     l2292:
  1683   000D46  0E64               	movlw	100
  1684   000D48  6E1E               	movwf	___lbdiv@divisor^0,c
  1685   000D4A  5026               	movf	EscribeLCD_n8@a^0,w,c
  1686   000D4C  ECD8  F009         	call	___lbdiv
  1687   000D50  6E23               	movwf	EscribeLCD_n8@centena^0,c
  1688                           
  1689                           ;LibLCDXC8.h: 172: decena=(a%100)/10;
  1690   000D52  0E0A               	movlw	10
  1691   000D54  6E1E               	movwf	___lbdiv@divisor^0,c
  1692   000D56  0E64               	movlw	100
  1693   000D58  6E1A               	movwf	___lbmod@divisor^0,c
  1694   000D5A  5026               	movf	EscribeLCD_n8@a^0,w,c
  1695   000D5C  EC70  F00A         	call	___lbmod
  1696   000D60  ECD8  F009         	call	___lbdiv
  1697   000D64  6E24               	movwf	EscribeLCD_n8@decena^0,c
  1698                           
  1699                           ;LibLCDXC8.h: 173: unidad=a%10;
  1700   000D66  0E0A               	movlw	10
  1701   000D68  6E1A               	movwf	___lbmod@divisor^0,c
  1702   000D6A  5026               	movf	EscribeLCD_n8@a^0,w,c
  1703   000D6C  EC70  F00A         	call	___lbmod
  1704   000D70  6E25               	movwf	EscribeLCD_n8@unidad^0,c
  1705                           
  1706                           ;LibLCDXC8.h: 174: EnviaDato(centena+48);
  1707   000D72  5023               	movf	EscribeLCD_n8@centena^0,w,c
  1708   000D74  0F30               	addlw	48
  1709   000D76  EC37  F009         	call	_EnviaDato
  1710                           
  1711                           ;LibLCDXC8.h: 175: HabilitaLCD();
  1712   000D7A  ECF7  F00A         	call	_HabilitaLCD	;wreg free
  1713                           
  1714                           ;LibLCDXC8.h: 176: RetardoLCD(4);
  1715   000D7E  0E04               	movlw	4
  1716   000D80  ECB8  F008         	call	_RetardoLCD
  1717                           
  1718                           ;LibLCDXC8.h: 177: EnviaDato(decena+48);
  1719   000D84  5024               	movf	EscribeLCD_n8@decena^0,w,c
  1720   000D86  0F30               	addlw	48
  1721   000D88  EC37  F009         	call	_EnviaDato
  1722                           
  1723                           ;LibLCDXC8.h: 178: HabilitaLCD();
  1724   000D8C  ECF7  F00A         	call	_HabilitaLCD	;wreg free
  1725                           
  1726                           ;LibLCDXC8.h: 179: RetardoLCD(4);
  1727   000D90  0E04               	movlw	4
  1728   000D92  ECB8  F008         	call	_RetardoLCD
  1729                           
  1730                           ;LibLCDXC8.h: 180: EnviaDato(unidad+48);
  1731   000D96  5025               	movf	EscribeLCD_n8@unidad^0,w,c
  1732   000D98  0F30               	addlw	48
  1733   000D9A  EC37  F009         	call	_EnviaDato
  1734                           
  1735                           ;LibLCDXC8.h: 181: HabilitaLCD();
  1736   000D9E  ECF7  F00A         	call	_HabilitaLCD	;wreg free
  1737                           
  1738                           ;LibLCDXC8.h: 182: RetardoLCD(4);
  1739   000DA2  0E04               	movlw	4
  1740   000DA4  ECB8  F008         	call	_RetardoLCD
  1741                           
  1742                           ;LibLCDXC8.h: 183: break;
  1743   000DA8  0012               	return	
  1744   000DAA                     l2308:
  1745   000DAA  5022               	movf	EscribeLCD_n8@b^0,w,c
  1746                           
  1747                           ; Switch size 1, requested type "simple"
  1748                           ; Number of cases is 3, Range of values is 1 to 3
  1749                           ; switch strategies available:
  1750                           ; Name         Instructions Cycles
  1751                           ; simple_byte           10     6 (average)
  1752                           ;	Chosen strategy is simple_byte
  1753   000DAC  0A01               	xorlw	1	; case 1
  1754   000DAE  B4D8               	btfsc	status,2,c
  1755   000DB0  D797               	goto	l2276
  1756   000DB2  0A03               	xorlw	3	; case 2
  1757   000DB4  B4D8               	btfsc	status,2,c
  1758   000DB6  D7A4               	goto	l2282
  1759   000DB8  0A01               	xorlw	1	; case 3
  1760   000DBA  A4D8               	btfss	status,2,c
  1761   000DBC  0012               	return	
  1762   000DBE  D7C3               	goto	l2292
  1763   000DC0                     __end_of_EscribeLCD_n8:
  1764                           	callstack 0
  1765                           
  1766 ;; *************** function ___lbmod *****************
  1767 ;; Defined at:
  1768 ;;		line 4 in file "C:\Program Files\Microchip\xc8\v2.50\pic\sources\c90\common\lbmod.c"
  1769 ;; Parameters:    Size  Location     Type
  1770 ;;  dividend        1    wreg     unsigned char 
  1771 ;;  divisor         1   25[COMRAM] unsigned char 
  1772 ;; Auto vars:     Size  Location     Type
  1773 ;;  dividend        1   26[COMRAM] unsigned char 
  1774 ;;  rem             1   28[COMRAM] unsigned char 
  1775 ;;  counter         1   27[COMRAM] unsigned char 
  1776 ;; Return value:  Size  Location     Type
  1777 ;;                  1    wreg      unsigned char 
  1778 ;; Registers used:
  1779 ;;		wreg, status,2, status,0
  1780 ;; Tracked objects:
  1781 ;;		On entry : 0/0
  1782 ;;		On exit  : 0/0
  1783 ;;		Unchanged: 0/0
  1784 ;; Data sizes:     COMRAM   BANK0   BANK1   BANK2   BANK3   BANK4   BANK5   BANK6   BANK7
  1785 ;;      Params:         1       0       0       0       0       0       0       0       0
  1786 ;;      Locals:         3       0       0       0       0       0       0       0       0
  1787 ;;      Temps:          0       0       0       0       0       0       0       0       0
  1788 ;;      Totals:         4       0       0       0       0       0       0       0       0
  1789 ;;Total ram usage:        4 bytes
  1790 ;; Hardware stack levels used: 1
  1791 ;; Hardware stack levels required when called: 8
  1792 ;; This function calls:
  1793 ;;		Nothing
  1794 ;; This function is called by:
  1795 ;;		_EscribeLCD_n8
  1796 ;; This function uses a non-reentrant model
  1797 ;;
  1798                           
  1799                           	psect	text4
  1800   0014E0                     __ptext4:
  1801                           	callstack 0
  1802   0014E0                     ___lbmod:
  1803                           	callstack 21
  1804                           
  1805                           ;incstack = 0
  1806                           ;___lbmod@dividend stored from wreg
  1807   0014E0  6E1B               	movwf	___lbmod@dividend^0,c
  1808   0014E2  0E08               	movlw	8
  1809   0014E4  6E1C               	movwf	___lbmod@counter^0,c
  1810   0014E6  6A1D               	clrf	___lbmod@rem^0,c
  1811   0014E8                     l2212:
  1812   0014E8  90D8               	bcf	status,0,c
  1813   0014EA  341B               	rlcf	___lbmod@dividend^0,w,c
  1814   0014EC  341D               	rlcf	___lbmod@rem^0,w,c
  1815   0014EE  6E1D               	movwf	___lbmod@rem^0,c
  1816   0014F0  90D8               	bcf	status,0,c
  1817   0014F2  361B               	rlcf	___lbmod@dividend^0,f,c
  1818   0014F4  501A               	movf	___lbmod@divisor^0,w,c
  1819   0014F6  5C1D               	subwf	___lbmod@rem^0,w,c
  1820   0014F8  A0D8               	btfss	status,0,c
  1821   0014FA  D002               	goto	l2220
  1822   0014FC  501A               	movf	___lbmod@divisor^0,w,c
  1823   0014FE  5E1D               	subwf	___lbmod@rem^0,f,c
  1824   001500                     l2220:
  1825   001500  2E1C               	decfsz	___lbmod@counter^0,f,c
  1826   001502  D7F2               	goto	l2212
  1827   001504  501D               	movf	___lbmod@rem^0,w,c
  1828   001506  0012               	return		;funcret
  1829   001508                     __end_of___lbmod:
  1830                           	callstack 0
  1831                           
  1832 ;; *************** function ___lbdiv *****************
  1833 ;; Defined at:
  1834 ;;		line 4 in file "C:\Program Files\Microchip\xc8\v2.50\pic\sources\c90\common\lbdiv.c"
  1835 ;; Parameters:    Size  Location     Type
  1836 ;;  dividend        1    wreg     unsigned char 
  1837 ;;  divisor         1   29[COMRAM] unsigned char 
  1838 ;; Auto vars:     Size  Location     Type
  1839 ;;  dividend        1   30[COMRAM] unsigned char 
  1840 ;;  quotient        1   32[COMRAM] unsigned char 
  1841 ;;  counter         1   31[COMRAM] unsigned char 
  1842 ;; Return value:  Size  Location     Type
  1843 ;;                  1    wreg      unsigned char 
  1844 ;; Registers used:
  1845 ;;		wreg, status,2, status,0
  1846 ;; Tracked objects:
  1847 ;;		On entry : 0/0
  1848 ;;		On exit  : 0/0
  1849 ;;		Unchanged: 0/0
  1850 ;; Data sizes:     COMRAM   BANK0   BANK1   BANK2   BANK3   BANK4   BANK5   BANK6   BANK7
  1851 ;;      Params:         1       0       0       0       0       0       0       0       0
  1852 ;;      Locals:         3       0       0       0       0       0       0       0       0
  1853 ;;      Temps:          0       0       0       0       0       0       0       0       0
  1854 ;;      Totals:         4       0       0       0       0       0       0       0       0
  1855 ;;Total ram usage:        4 bytes
  1856 ;; Hardware stack levels used: 1
  1857 ;; Hardware stack levels required when called: 8
  1858 ;; This function calls:
  1859 ;;		Nothing
  1860 ;; This function is called by:
  1861 ;;		_EscribeLCD_n8
  1862 ;; This function uses a non-reentrant model
  1863 ;;
  1864                           
  1865                           	psect	text5
  1866   0013B0                     __ptext5:
  1867                           	callstack 0
  1868   0013B0                     ___lbdiv:
  1869                           	callstack 21
  1870                           
  1871                           ;incstack = 0
  1872                           ;___lbdiv@dividend stored from wreg
  1873   0013B0  6E1F               	movwf	___lbdiv@dividend^0,c
  1874   0013B2  6A21               	clrf	___lbdiv@quotient^0,c
  1875   0013B4  501E               	movf	___lbdiv@divisor^0,w,c
  1876   0013B6  B4D8               	btfsc	status,2,c
  1877   0013B8  D015               	goto	l2204
  1878   0013BA  0E01               	movlw	1
  1879   0013BC  6E20               	movwf	___lbdiv@counter^0,c
  1880   0013BE  D003               	goto	l2192
  1881   0013C0                     l2188:
  1882   0013C0  90D8               	bcf	status,0,c
  1883   0013C2  361E               	rlcf	___lbdiv@divisor^0,f,c
  1884   0013C4  2A20               	incf	___lbdiv@counter^0,f,c
  1885   0013C6                     l2192:
  1886   0013C6  AE1E               	btfss	___lbdiv@divisor^0,7,c
  1887   0013C8  D7FB               	goto	l2188
  1888   0013CA                     u990:
  1889   0013CA  90D8               	bcf	status,0,c
  1890   0013CC  3621               	rlcf	___lbdiv@quotient^0,f,c
  1891   0013CE  501E               	movf	___lbdiv@divisor^0,w,c
  1892   0013D0  5C1F               	subwf	___lbdiv@dividend^0,w,c
  1893   0013D2  A0D8               	btfss	status,0,c
  1894   0013D4  D003               	goto	l2200
  1895   0013D6  501E               	movf	___lbdiv@divisor^0,w,c
  1896   0013D8  5E1F               	subwf	___lbdiv@dividend^0,f,c
  1897   0013DA  8021               	bsf	___lbdiv@quotient^0,0,c
  1898   0013DC                     l2200:
  1899   0013DC  90D8               	bcf	status,0,c
  1900   0013DE  321E               	rrcf	___lbdiv@divisor^0,f,c
  1901   0013E0  2E20               	decfsz	___lbdiv@counter^0,f,c
  1902   0013E2  D7F3               	goto	u990
  1903   0013E4                     l2204:
  1904   0013E4  5021               	movf	___lbdiv@quotient^0,w,c
  1905   0013E6  0012               	return		;funcret
  1906   0013E8                     __end_of___lbdiv:
  1907                           	callstack 0
  1908                           
  1909 ;; *************** function _ConfigVariables *****************
  1910 ;; Defined at:
  1911 ;;		line 425 in file "Lab4.c"
  1912 ;; Parameters:    Size  Location     Type
  1913 ;;		None
  1914 ;; Auto vars:     Size  Location     Type
  1915 ;;		None
  1916 ;; Return value:  Size  Location     Type
  1917 ;;                  1    wreg      void 
  1918 ;; Registers used:
  1919 ;;		wreg, status,2
  1920 ;; Tracked objects:
  1921 ;;		On entry : 0/0
  1922 ;;		On exit  : 0/0
  1923 ;;		Unchanged: 0/0
  1924 ;; Data sizes:     COMRAM   BANK0   BANK1   BANK2   BANK3   BANK4   BANK5   BANK6   BANK7
  1925 ;;      Params:         0       0       0       0       0       0       0       0       0
  1926 ;;      Locals:         0       0       0       0       0       0       0       0       0
  1927 ;;      Temps:          0       0       0       0       0       0       0       0       0
  1928 ;;      Totals:         0       0       0       0       0       0       0       0       0
  1929 ;;Total ram usage:        0 bytes
  1930 ;; Hardware stack levels used: 1
  1931 ;; Hardware stack levels required when called: 8
  1932 ;; This function calls:
  1933 ;;		Nothing
  1934 ;; This function is called by:
  1935 ;;		_main
  1936 ;; This function uses a non-reentrant model
  1937 ;;
  1938                           
  1939                           	psect	text6
  1940   001484                     __ptext6:
  1941                           	callstack 0
  1942   001484                     _ConfigVariables:
  1943                           	callstack 22
  1944                           
  1945                           ;Lab4.c: 426: pulsadorListo = 1;
  1946                           
  1947                           ;incstack = 0
  1948   001484  0E01               	movlw	1
  1949   001486  6E45               	movwf	_pulsadorListo^0,c
  1950                           
  1951                           ;Lab4.c: 427: unidades7Seg = 0;
  1952   001488  0E00               	movlw	0
  1953   00148A  6E3D               	movwf	(_unidades7Seg+1)^0,c
  1954   00148C  0E00               	movlw	0
  1955   00148E  6E3C               	movwf	_unidades7Seg^0,c
  1956                           
  1957                           ;Lab4.c: 428: flagConteoActivo = 0;
  1958   001490  6A42               	clrf	_flagConteoActivo^0,c
  1959                           
  1960                           ;Lab4.c: 429: piezasTotalesContadas = 0;
  1961   001492  0E00               	movlw	0
  1962   001494  6E3F               	movwf	(_piezasTotalesContadas+1)^0,c
  1963   001496  0E00               	movlw	0
  1964   001498  6E3E               	movwf	_piezasTotalesContadas^0,c
  1965                           
  1966                           ;Lab4.c: 430: decenasRGB = 0;
  1967   00149A  0E00               	movlw	0
  1968   00149C  6E3B               	movwf	(_decenasRGB+1)^0,c
  1969   00149E  0E00               	movlw	0
  1970   0014A0  6E3A               	movwf	_decenasRGB^0,c
  1971                           
  1972                           ;Lab4.c: 431: indiceDigitoObjetivo = 0;
  1973   0014A2  6A44               	clrf	_indiceDigitoObjetivo^0,c
  1974                           
  1975                           ;Lab4.c: 432: piezasObjetivo = 0;
  1976   0014A4  0E00               	movlw	0
  1977   0014A6  6E39               	movwf	(_piezasObjetivo+1)^0,c
  1978   0014A8  0E00               	movlw	0
  1979   0014AA  6E38               	movwf	_piezasObjetivo^0,c
  1980                           
  1981                           ;Lab4.c: 433: teclaLeida = '\0';
  1982   0014AC  6A41               	clrf	_teclaLeida^0,c
  1983                           
  1984                           ;Lab4.c: 434: segundosSinActividad = 0;
  1985   0014AE  6A40               	clrf	_segundosSinActividad^0,c
  1986   0014B0  0012               	return		;funcret
  1987   0014B2                     __end_of_ConfigVariables:
  1988                           	callstack 0
  1989                           
  1990 ;; *************** function _Bienvenida *****************
  1991 ;; Defined at:
  1992 ;;		line 439 in file "Lab4.c"
  1993 ;; Parameters:    Size  Location     Type
  1994 ;;		None
  1995 ;; Auto vars:     Size  Location     Type
  1996 ;;  i               2   36[COMRAM] int 
  1997 ;; Return value:  Size  Location     Type
  1998 ;;                  1    wreg      void 
  1999 ;; Registers used:
  2000 ;;		wreg, fsr2l, fsr2h, status,2, status,0, tblptrl, tblptrh, tblptru, prodl, prodh, cstack
  2001 ;; Tracked objects:
  2002 ;;		On entry : 0/0
  2003 ;;		On exit  : 0/0
  2004 ;;		Unchanged: 0/0
  2005 ;; Data sizes:     COMRAM   BANK0   BANK1   BANK2   BANK3   BANK4   BANK5   BANK6   BANK7
  2006 ;;      Params:         0       0       0       0       0       0       0       0       0
  2007 ;;      Locals:         2       0       0       0       0       0       0       0       0
  2008 ;;      Temps:          2       0       0       0       0       0       0       0       0
  2009 ;;      Totals:         4       0       0       0       0       0       0       0       0
  2010 ;;Total ram usage:        4 bytes
  2011 ;; Hardware stack levels used: 1
  2012 ;; Hardware stack levels required when called: 14
  2013 ;; This function calls:
  2014 ;;		_ConfiguraLCD
  2015 ;;		_CrearCaracter
  2016 ;;		_DesplazaPantallaD
  2017 ;;		_DireccionaLCD
  2018 ;;		_EscribeLCD_c
  2019 ;;		_InicializaLCD
  2020 ;;		_MensajeLCD_Var
  2021 ;;		_OcultarCursor
  2022 ;; This function is called by:
  2023 ;;		_main
  2024 ;; This function uses a non-reentrant model
  2025 ;;
  2026                           
  2027                           	psect	text7
  2028   000F72                     __ptext7:
  2029                           	callstack 0
  2030   000F72                     _Bienvenida:
  2031                           	callstack 16
  2032                           
  2033                           ;Lab4.c: 441: ConfiguraLCD(4);
  2034                           
  2035                           ;incstack = 0
  2036   000F72  0E04               	movlw	4
  2037   000F74  EC98  F00A         	call	_ConfiguraLCD
  2038                           
  2039                           ;Lab4.c: 442: InicializaLCD();
  2040   000F78  EC0F  F008         	call	_InicializaLCD	;wreg free
  2041                           
  2042                           ;Lab4.c: 443: OcultarCursor();
  2043   000F7C  EC09  F00B         	call	_OcultarCursor	;wreg free
  2044                           
  2045                           ;Lab4.c: 446: CrearCaracter(Estrella, 0);
  2046   000F80  0E30               	movlw	low _Estrella
  2047   000F82  6E1F               	movwf	CrearCaracter@arreglo^0,c
  2048   000F84  0E00               	movlw	0
  2049   000F86  6E20               	movwf	CrearCaracter@posicionCGRAM^0,c
  2050   000F88  EC5D  F008         	call	_CrearCaracter	;wreg free
  2051                           
  2052                           ;Lab4.c: 449: EscribeLCD_c(0);
  2053   000F8C  0E00               	movlw	0
  2054   000F8E  ECA4  F00A         	call	_EscribeLCD_c
  2055                           
  2056                           ;Lab4.c: 450: EscribeLCD_c(0);
  2057   000F92  0E00               	movlw	0
  2058   000F94  ECA4  F00A         	call	_EscribeLCD_c
  2059                           
  2060                           ;Lab4.c: 451: MensajeLCD_Var(" Bienvenido ");
  2061   000F98  0E4C               	movlw	low STR_7
  2062   000F9A  6E1F               	movwf	MensajeLCD_Var@a^0,c
  2063   000F9C  EC7D  F009         	call	_MensajeLCD_Var	;wreg free
  2064                           
  2065                           ;Lab4.c: 452: EscribeLCD_c(0);
  2066   000FA0  0E00               	movlw	0
  2067   000FA2  ECA4  F00A         	call	_EscribeLCD_c
  2068                           
  2069                           ;Lab4.c: 453: EscribeLCD_c(0);
  2070   000FA6  0E00               	movlw	0
  2071   000FA8  ECA4  F00A         	call	_EscribeLCD_c
  2072                           
  2073                           ;Lab4.c: 455: DireccionaLCD(0xC0);
  2074   000FAC  0EC0               	movlw	192
  2075   000FAE  ECAF  F00A         	call	_DireccionaLCD
  2076                           
  2077                           ;Lab4.c: 456: EscribeLCD_c(0);
  2078   000FB2  0E00               	movlw	0
  2079   000FB4  ECA4  F00A         	call	_EscribeLCD_c
  2080                           
  2081                           ;Lab4.c: 457: EscribeLCD_c(0);
  2082   000FB8  0E00               	movlw	0
  2083   000FBA  ECA4  F00A         	call	_EscribeLCD_c
  2084                           
  2085                           ;Lab4.c: 458: MensajeLCD_Var("  Operario ");
  2086   000FBE  0E72               	movlw	low STR_8
  2087   000FC0  6E1F               	movwf	MensajeLCD_Var@a^0,c
  2088   000FC2  EC7D  F009         	call	_MensajeLCD_Var	;wreg free
  2089                           
  2090                           ;Lab4.c: 459: EscribeLCD_c(0);
  2091   000FC6  0E00               	movlw	0
  2092   000FC8  ECA4  F00A         	call	_EscribeLCD_c
  2093                           
  2094                           ;Lab4.c: 460: EscribeLCD_c(0);
  2095   000FCC  0E00               	movlw	0
  2096   000FCE  ECA4  F00A         	call	_EscribeLCD_c
  2097                           
  2098                           ;Lab4.c: 461: _delay((unsigned long)((3200)*(1000000/4000.0)));
  2099   000FD2  0E05               	movlw	5
  2100   000FD4  6E24               	movwf	(??_Bienvenida+1)^0,c
  2101   000FD6  0E0F               	movlw	15
  2102   000FD8  6E23               	movwf	??_Bienvenida^0,c
  2103   000FDA  0EF1               	movlw	241
  2104   000FDC                     u1867:
  2105   000FDC  2EE8               	decfsz	wreg,f,c
  2106   000FDE  D7FE               	bra	u1867
  2107   000FE0  2E23               	decfsz	??_Bienvenida^0,f,c
  2108   000FE2  D7FC               	bra	u1867
  2109   000FE4  2E24               	decfsz	(??_Bienvenida+1)^0,f,c
  2110   000FE6  D7FA               	bra	u1867
  2111   000FE8  0000               	nop	
  2112                           
  2113                           ;Lab4.c: 464: for(int i = 0; i < 18; i++){
  2114   000FEA  0E00               	movlw	0
  2115   000FEC  6E26               	movwf	(Bienvenida@i+1)^0,c
  2116   000FEE  0E00               	movlw	0
  2117   000FF0  6E25               	movwf	Bienvenida@i^0,c
  2118   000FF2                     l2344:
  2119                           
  2120                           ;Lab4.c: 465: DesplazaPantallaD();
  2121   000FF2  ECDA  F00A         	call	_DesplazaPantallaD	;wreg free
  2122                           
  2123                           ;Lab4.c: 466: _delay((unsigned long)((100)*(1000000/4000.0)));
  2124   000FF6  0E21               	movlw	33
  2125   000FF8  6E23               	movwf	??_Bienvenida^0,c
  2126   000FFA  0E76               	movlw	118
  2127   000FFC                     u1877:
  2128   000FFC  2EE8               	decfsz	wreg,f,c
  2129   000FFE  D7FE               	bra	u1877
  2130   001000  2E23               	decfsz	??_Bienvenida^0,f,c
  2131   001002  D7FC               	bra	u1877
  2132   001004  D000               	nop2	
  2133   001006  4A25               	infsnz	Bienvenida@i^0,f,c
  2134   001008  2A26               	incf	(Bienvenida@i+1)^0,f,c
  2135   00100A  BE26               	btfsc	(Bienvenida@i+1)^0,7,c
  2136   00100C  D7F2               	goto	l2344
  2137   00100E  5026               	movf	(Bienvenida@i+1)^0,w,c
  2138   001010  E105               	bnz	u1020
  2139   001012  0E12               	movlw	18
  2140   001014  5C25               	subwf	Bienvenida@i^0,w,c
  2141   001016  B0D8               	btfsc	status,0,c
  2142   001018  0012               	return	
  2143   00101A  D7EB               	goto	l2344
  2144   00101C                     u1020:
  2145   00101C  0012               	return		;funcret
  2146   00101E                     __end_of_Bienvenida:
  2147                           	callstack 0
  2148                           
  2149 ;; *************** function _OcultarCursor *****************
  2150 ;; Defined at:
  2151 ;;		line 323 in file "LibLCDXC8.h"
  2152 ;; Parameters:    Size  Location     Type
  2153 ;;		None
  2154 ;; Auto vars:     Size  Location     Type
  2155 ;;		None
  2156 ;; Return value:  Size  Location     Type
  2157 ;;                  1    wreg      void 
  2158 ;; Registers used:
  2159 ;;		wreg, status,2, status,0, cstack
  2160 ;; Tracked objects:
  2161 ;;		On entry : 0/0
  2162 ;;		On exit  : 0/0
  2163 ;;		Unchanged: 0/0
  2164 ;; Data sizes:     COMRAM   BANK0   BANK1   BANK2   BANK3   BANK4   BANK5   BANK6   BANK7
  2165 ;;      Params:         0       0       0       0       0       0       0       0       0
  2166 ;;      Locals:         0       0       0       0       0       0       0       0       0
  2167 ;;      Temps:          0       0       0       0       0       0       0       0       0
  2168 ;;      Totals:         0       0       0       0       0       0       0       0       0
  2169 ;;Total ram usage:        0 bytes
  2170 ;; Hardware stack levels used: 1
  2171 ;; Hardware stack levels required when called: 13
  2172 ;; This function calls:
  2173 ;;		_ComandoLCD
  2174 ;; This function is called by:
  2175 ;;		_main
  2176 ;;		_Bienvenida
  2177 ;;		_PreguntaAlUsuario
  2178 ;; This function uses a non-reentrant model
  2179 ;;
  2180                           
  2181                           	psect	text8
  2182   001612                     __ptext8:
  2183                           	callstack 0
  2184   001612                     _OcultarCursor:
  2185                           	callstack 16
  2186                           
  2187                           ;LibLCDXC8.h: 324: ComandoLCD(0xC);
  2188                           
  2189                           ;incstack = 0
  2190   001612  0E0C               	movlw	12
  2191   001614  EC10  F00A         	call	_ComandoLCD
  2192   001618  0012               	return		;funcret
  2193   00161A                     __end_of_OcultarCursor:
  2194                           	callstack 0
  2195                           
  2196 ;; *************** function _ComandoLCD *****************
  2197 ;; Defined at:
  2198 ;;		line 127 in file "LibLCDXC8.h"
  2199 ;; Parameters:    Size  Location     Type
  2200 ;;  a               1    wreg     unsigned char 
  2201 ;; Auto vars:     Size  Location     Type
  2202 ;;  a               1   30[COMRAM] unsigned char 
  2203 ;; Return value:  Size  Location     Type
  2204 ;;                  1    wreg      void 
  2205 ;; Registers used:
  2206 ;;		wreg, status,2, status,0, cstack
  2207 ;; Tracked objects:
  2208 ;;		On entry : 0/0
  2209 ;;		On exit  : 0/0
  2210 ;;		Unchanged: 0/0
  2211 ;; Data sizes:     COMRAM   BANK0   BANK1   BANK2   BANK3   BANK4   BANK5   BANK6   BANK7
  2212 ;;      Params:         0       0       0       0       0       0       0       0       0
  2213 ;;      Locals:         1       0       0       0       0       0       0       0       0
  2214 ;;      Temps:          0       0       0       0       0       0       0       0       0
  2215 ;;      Totals:         1       0       0       0       0       0       0       0       0
  2216 ;;Total ram usage:        1 bytes
  2217 ;; Hardware stack levels used: 1
  2218 ;; Hardware stack levels required when called: 12
  2219 ;; This function calls:
  2220 ;;		_BorraLCD
  2221 ;;		_CursorAInicio
  2222 ;;		_EnviaDato
  2223 ;;		_HabilitaLCD
  2224 ;;		_RetardoLCD
  2225 ;; This function is called by:
  2226 ;;		_OcultarCursor
  2227 ;;		_MostrarCursor
  2228 ;; This function uses a non-reentrant model
  2229 ;;
  2230                           
  2231                           	psect	text9
  2232   001420                     __ptext9:
  2233                           	callstack 0
  2234   001420                     _ComandoLCD:
  2235                           	callstack 16
  2236                           
  2237                           ;incstack = 0
  2238                           ;ComandoLCD@a stored from wreg
  2239   001420  6E1F               	movwf	ComandoLCD@a^0,c
  2240                           
  2241                           ;LibLCDXC8.h: 129: LATA4=0;
  2242   001422  9889               	bcf	3977,4,c	;volatile
  2243                           
  2244                           ;LibLCDXC8.h: 130: if(a==1)
  2245   001424  041F               	decf	ComandoLCD@a^0,w,c
  2246   001426  A4D8               	btfss	status,2,c
  2247   001428  D003               	goto	l1212
  2248                           
  2249                           ;LibLCDXC8.h: 131: BorraLCD();
  2250   00142A  ECD0  F00A         	call	_BorraLCD	;wreg free
  2251   00142E  0012               	return	
  2252   001430                     l1212:
  2253                           
  2254                           ;LibLCDXC8.h: 132: else if((a&0b11111110)==2)
  2255   001430  501F               	movf	ComandoLCD@a^0,w,c
  2256   001432  0BFE               	andlw	254
  2257   001434  0A02               	xorlw	2
  2258   001436  A4D8               	btfss	status,2,c
  2259   001438  D003               	goto	l1216
  2260                           
  2261                           ;LibLCDXC8.h: 133: CursorAInicio();
  2262   00143A  EC0D  F00B         	call	_CursorAInicio	;wreg free
  2263   00143E  0012               	return	
  2264   001440                     l1216:
  2265                           
  2266                           ;LibLCDXC8.h: 134: else{;LibLCDXC8.h: 135: EnviaDato(a);
  2267   001440  501F               	movf	ComandoLCD@a^0,w,c
  2268   001442  EC37  F009         	call	_EnviaDato
  2269                           
  2270                           ;LibLCDXC8.h: 136: HabilitaLCD();
  2271   001446  ECF7  F00A         	call	_HabilitaLCD	;wreg free
  2272                           
  2273                           ;LibLCDXC8.h: 137: RetardoLCD(4);
  2274   00144A  0E04               	movlw	4
  2275   00144C  ECB8  F008         	call	_RetardoLCD
  2276   001450  0012               	return		;funcret
  2277   001452                     __end_of_ComandoLCD:
  2278                           	callstack 0
  2279                           
  2280 ;; *************** function _CursorAInicio *****************
  2281 ;; Defined at:
  2282 ;;		line 121 in file "LibLCDXC8.h"
  2283 ;; Parameters:    Size  Location     Type
  2284 ;;		None
  2285 ;; Auto vars:     Size  Location     Type
  2286 ;;		None
  2287 ;; Return value:  Size  Location     Type
  2288 ;;                  1    wreg      void 
  2289 ;; Registers used:
  2290 ;;		wreg, status,2, status,0, cstack
  2291 ;; Tracked objects:
  2292 ;;		On entry : 0/0
  2293 ;;		On exit  : 0/0
  2294 ;;		Unchanged: 0/0
  2295 ;; Data sizes:     COMRAM   BANK0   BANK1   BANK2   BANK3   BANK4   BANK5   BANK6   BANK7
  2296 ;;      Params:         0       0       0       0       0       0       0       0       0
  2297 ;;      Locals:         0       0       0       0       0       0       0       0       0
  2298 ;;      Temps:          0       0       0       0       0       0       0       0       0
  2299 ;;      Totals:         0       0       0       0       0       0       0       0       0
  2300 ;;Total ram usage:        0 bytes
  2301 ;; Hardware stack levels used: 1
  2302 ;; Hardware stack levels required when called: 11
  2303 ;; This function calls:
  2304 ;;		_DireccionaLCD
  2305 ;; This function is called by:
  2306 ;;		_ComandoLCD
  2307 ;; This function uses a non-reentrant model
  2308 ;;
  2309                           
  2310                           	psect	text10
  2311   00161A                     __ptext10:
  2312                           	callstack 0
  2313   00161A                     _CursorAInicio:
  2314                           	callstack 16
  2315                           
  2316                           ;LibLCDXC8.h: 124: DireccionaLCD(0x80);
  2317                           
  2318                           ;incstack = 0
  2319   00161A  0E80               	movlw	128
  2320   00161C  ECAF  F00A         	call	_DireccionaLCD
  2321   001620  0012               	return		;funcret
  2322   001622                     __end_of_CursorAInicio:
  2323                           	callstack 0
  2324                           
  2325 ;; *************** function _MensajeLCD_Var *****************
  2326 ;; Defined at:
  2327 ;;		line 236 in file "LibLCDXC8.h"
  2328 ;; Parameters:    Size  Location     Type
  2329 ;;  a               1   30[COMRAM] PTR unsigned char 
  2330 ;;		 -> STR_12(14), STR_11(14), STR_10(13), STR_9(17), 
  2331 ;;		 -> STR_8(12), STR_7(13), STR_6(11), STR_5(14), 
  2332 ;;		 -> STR_4(12), STR_3(16), STR_2(11), STR_1(12), 
  2333 ;; Auto vars:     Size  Location     Type
  2334 ;;  i               2   32[COMRAM] int 
  2335 ;; Return value:  Size  Location     Type
  2336 ;;                  1    wreg      void 
  2337 ;; Registers used:
  2338 ;;		wreg, status,2, status,0, tblptrl, tblptrh, tblptru, cstack
  2339 ;; Tracked objects:
  2340 ;;		On entry : 0/0
  2341 ;;		On exit  : 0/0
  2342 ;;		Unchanged: 0/0
  2343 ;; Data sizes:     COMRAM   BANK0   BANK1   BANK2   BANK3   BANK4   BANK5   BANK6   BANK7
  2344 ;;      Params:         1       0       0       0       0       0       0       0       0
  2345 ;;      Locals:         2       0       0       0       0       0       0       0       0
  2346 ;;      Temps:          1       0       0       0       0       0       0       0       0
  2347 ;;      Totals:         4       0       0       0       0       0       0       0       0
  2348 ;;Total ram usage:        4 bytes
  2349 ;; Hardware stack levels used: 1
  2350 ;; Hardware stack levels required when called: 11
  2351 ;; This function calls:
  2352 ;;		_EscribeLCD_c
  2353 ;; This function is called by:
  2354 ;;		_main
  2355 ;;		_Bienvenida
  2356 ;;		_PreguntaAlUsuario
  2357 ;; This function uses a non-reentrant model
  2358 ;;
  2359                           
  2360                           	psect	text11
  2361   0012FA                     __ptext11:
  2362                           	callstack 0
  2363   0012FA                     _MensajeLCD_Var:
  2364                           	callstack 18
  2365                           
  2366                           ;LibLCDXC8.h: 241: for (int i=0;a[i] != '\0';i++){
  2367                           
  2368                           ;incstack = 0
  2369   0012FA  0E00               	movlw	0
  2370   0012FC  6E22               	movwf	(MensajeLCD_Var@i+1)^0,c
  2371   0012FE  0E00               	movlw	0
  2372   001300  6E21               	movwf	MensajeLCD_Var@i^0,c
  2373   001302  D00D               	goto	l2150
  2374   001304                     l2146:
  2375                           
  2376                           ;LibLCDXC8.h: 242: EscribeLCD_c(a[i]);
  2377   001304  501F               	movf	MensajeLCD_Var@a^0,w,c
  2378   001306  2421               	addwf	MensajeLCD_Var@i^0,w,c
  2379   001308  6E20               	movwf	??_MensajeLCD_Var^0,c
  2380   00130A  C020  FFF6         	movff	??_MensajeLCD_Var,tblptrl
  2381   00130E                     	if	1	;There is more than 1 active tblptr byte
  2382   00130E  0E08               	movlw	high __smallconst
  2383   001310  6EF7               	movwf	tblptrh,c
  2384   001312                     	endif
  2385   001312                     	if	0	;tblptru may be non-zero
  2386   001312                     	endif
  2387   001312                     	if	0	;tblptru may be non-zero
  2388   001312                     	endif
  2389   001312  0008               	tblrd		*
  2390   001314  50F5               	movf	tablat,w,c
  2391   001316  ECA4  F00A         	call	_EscribeLCD_c
  2392   00131A  4A21               	infsnz	MensajeLCD_Var@i^0,f,c
  2393   00131C  2A22               	incf	(MensajeLCD_Var@i+1)^0,f,c
  2394   00131E                     l2150:
  2395   00131E  501F               	movf	MensajeLCD_Var@a^0,w,c
  2396   001320  2421               	addwf	MensajeLCD_Var@i^0,w,c
  2397   001322  6E20               	movwf	??_MensajeLCD_Var^0,c
  2398   001324  C020  FFF6         	movff	??_MensajeLCD_Var,tblptrl
  2399   001328                     	if	1	;There is more than 1 active tblptr byte
  2400   001328  0E08               	movlw	high __smallconst
  2401   00132A  6EF7               	movwf	tblptrh,c
  2402   00132C                     	endif
  2403   00132C                     	if	0	;tblptru may be non-zero
  2404   00132C                     	endif
  2405   00132C                     	if	0	;tblptru may be non-zero
  2406   00132C                     	endif
  2407   00132C  0008               	tblrd		*
  2408   00132E  50F5               	movf	tablat,w,c
  2409   001330  0900               	iorlw	0
  2410   001332  B4D8               	btfsc	status,2,c
  2411   001334  0012               	return	
  2412   001336  D7E6               	goto	l2146
  2413   001338                     __end_of_MensajeLCD_Var:
  2414                           	callstack 0
  2415                           
  2416 ;; *************** function _EscribeLCD_c *****************
  2417 ;; Defined at:
  2418 ;;		line 140 in file "LibLCDXC8.h"
  2419 ;; Parameters:    Size  Location     Type
  2420 ;;  a               1    wreg     unsigned char 
  2421 ;; Auto vars:     Size  Location     Type
  2422 ;;  a               1   29[COMRAM] unsigned char 
  2423 ;; Return value:  Size  Location     Type
  2424 ;;                  1    wreg      void 
  2425 ;; Registers used:
  2426 ;;		wreg, status,2, status,0, cstack
  2427 ;; Tracked objects:
  2428 ;;		On entry : 0/0
  2429 ;;		On exit  : 0/0
  2430 ;;		Unchanged: 0/0
  2431 ;; Data sizes:     COMRAM   BANK0   BANK1   BANK2   BANK3   BANK4   BANK5   BANK6   BANK7
  2432 ;;      Params:         0       0       0       0       0       0       0       0       0
  2433 ;;      Locals:         1       0       0       0       0       0       0       0       0
  2434 ;;      Temps:          0       0       0       0       0       0       0       0       0
  2435 ;;      Totals:         1       0       0       0       0       0       0       0       0
  2436 ;;Total ram usage:        1 bytes
  2437 ;; Hardware stack levels used: 1
  2438 ;; Hardware stack levels required when called: 10
  2439 ;; This function calls:
  2440 ;;		_EnviaDato
  2441 ;;		_HabilitaLCD
  2442 ;;		_RetardoLCD
  2443 ;; This function is called by:
  2444 ;;		_MensajeLCD_Var
  2445 ;;		_Bienvenida
  2446 ;;		_PreguntaAlUsuario
  2447 ;; This function uses a non-reentrant model
  2448 ;;
  2449                           
  2450                           	psect	text12
  2451   001548                     __ptext12:
  2452                           	callstack 0
  2453   001548                     _EscribeLCD_c:
  2454                           	callstack 18
  2455                           
  2456                           ;incstack = 0
  2457                           ;EscribeLCD_c@a stored from wreg
  2458   001548  6E1E               	movwf	EscribeLCD_c@a^0,c
  2459                           
  2460                           ;LibLCDXC8.h: 144: LATA4=1;
  2461   00154A  8889               	bsf	3977,4,c	;volatile
  2462                           
  2463                           ;LibLCDXC8.h: 145: EnviaDato(a);
  2464   00154C  501E               	movf	EscribeLCD_c@a^0,w,c
  2465   00154E  EC37  F009         	call	_EnviaDato
  2466                           
  2467                           ;LibLCDXC8.h: 146: HabilitaLCD();
  2468   001552  ECF7  F00A         	call	_HabilitaLCD	;wreg free
  2469                           
  2470                           ;LibLCDXC8.h: 147: RetardoLCD(4);
  2471   001556  0E04               	movlw	4
  2472   001558  ECB8  F008         	call	_RetardoLCD
  2473   00155C  0012               	return		;funcret
  2474   00155E                     __end_of_EscribeLCD_c:
  2475                           	callstack 0
  2476                           
  2477 ;; *************** function _InicializaLCD *****************
  2478 ;; Defined at:
  2479 ;;		line 73 in file "LibLCDXC8.h"
  2480 ;; Parameters:    Size  Location     Type
  2481 ;;		None
  2482 ;; Auto vars:     Size  Location     Type
  2483 ;;		None
  2484 ;; Return value:  Size  Location     Type
  2485 ;;                  1    wreg      void 
  2486 ;; Registers used:
  2487 ;;		wreg, status,2, status,0, cstack
  2488 ;; Tracked objects:
  2489 ;;		On entry : 0/0
  2490 ;;		On exit  : 0/0
  2491 ;;		Unchanged: 0/0
  2492 ;; Data sizes:     COMRAM   BANK0   BANK1   BANK2   BANK3   BANK4   BANK5   BANK6   BANK7
  2493 ;;      Params:         0       0       0       0       0       0       0       0       0
  2494 ;;      Locals:         0       0       0       0       0       0       0       0       0
  2495 ;;      Temps:          0       0       0       0       0       0       0       0       0
  2496 ;;      Totals:         0       0       0       0       0       0       0       0       0
  2497 ;;Total ram usage:        0 bytes
  2498 ;; Hardware stack levels used: 1
  2499 ;; Hardware stack levels required when called: 11
  2500 ;; This function calls:
  2501 ;;		_BorraLCD
  2502 ;;		_EnviaDato
  2503 ;;		_HabilitaLCD
  2504 ;;		_RetardoLCD
  2505 ;; This function is called by:
  2506 ;;		_Bienvenida
  2507 ;; This function uses a non-reentrant model
  2508 ;;
  2509                           
  2510                           	psect	text13
  2511   00101E                     __ptext13:
  2512                           	callstack 0
  2513   00101E                     _InicializaLCD:
  2514                           	callstack 18
  2515                           
  2516                           ;LibLCDXC8.h: 75: LATA4=0;
  2517                           
  2518                           ;incstack = 0
  2519   00101E  9889               	bcf	3977,4,c	;volatile
  2520                           
  2521                           ;LibLCDXC8.h: 76: if(interfaz==4)
  2522   001020  0E04               	movlw	4
  2523   001022  1827               	xorwf	_interfaz^0,w,c
  2524   001024  A4D8               	btfss	status,2,c
  2525   001026  D004               	goto	l1300
  2526                           
  2527                           ;LibLCDXC8.h: 77: LATD=(LATD & 0b00001111) | 0x30;
  2528   001028  508C               	movf	140,w,c	;volatile
  2529   00102A  0B0F               	andlw	15
  2530   00102C  0930               	iorlw	48
  2531   00102E  D001               	goto	L5
  2532   001030                     l1300:
  2533                           
  2534                           ;LibLCDXC8.h: 78: else;LibLCDXC8.h: 79: LATD=0x3F;
  2535   001030  0E3F               	movlw	63
  2536   001032                     L5:
  2537   001032  6E8C               	movwf	140,c	;volatile
  2538                           
  2539                           ;LibLCDXC8.h: 80: HabilitaLCD();
  2540   001034  ECF7  F00A         	call	_HabilitaLCD	;wreg free
  2541                           
  2542                           ;LibLCDXC8.h: 81: RetardoLCD(1);
  2543   001038  0E01               	movlw	1
  2544   00103A  ECB8  F008         	call	_RetardoLCD
  2545                           
  2546                           ;LibLCDXC8.h: 82: if(interfaz==4)
  2547   00103E  0E04               	movlw	4
  2548   001040  1827               	xorwf	_interfaz^0,w,c
  2549   001042  A4D8               	btfss	status,2,c
  2550   001044  D004               	goto	l1310
  2551                           
  2552                           ;LibLCDXC8.h: 83: LATD=(LATD & 0b00001111) | 0x30;
  2553   001046  508C               	movf	140,w,c	;volatile
  2554   001048  0B0F               	andlw	15
  2555   00104A  0930               	iorlw	48
  2556   00104C  D001               	goto	L6
  2557   00104E                     l1310:
  2558                           
  2559                           ;LibLCDXC8.h: 84: else;LibLCDXC8.h: 85: LATD=0x3F;
  2560   00104E  0E3F               	movlw	63
  2561   001050                     L6:
  2562   001050  6E8C               	movwf	140,c	;volatile
  2563                           
  2564                           ;LibLCDXC8.h: 86: HabilitaLCD();
  2565   001052  ECF7  F00A         	call	_HabilitaLCD	;wreg free
  2566                           
  2567                           ;LibLCDXC8.h: 87: RetardoLCD(3);
  2568   001056  0E03               	movlw	3
  2569   001058  ECB8  F008         	call	_RetardoLCD
  2570                           
  2571                           ;LibLCDXC8.h: 88: if(interfaz==4)
  2572   00105C  0E04               	movlw	4
  2573   00105E  1827               	xorwf	_interfaz^0,w,c
  2574   001060  A4D8               	btfss	status,2,c
  2575   001062  D004               	goto	l1320
  2576                           
  2577                           ;LibLCDXC8.h: 89: LATD=(LATD & 0b00001111) | 0x30;
  2578   001064  508C               	movf	140,w,c	;volatile
  2579   001066  0B0F               	andlw	15
  2580   001068  0930               	iorlw	48
  2581   00106A  D001               	goto	L7
  2582   00106C                     l1320:
  2583                           
  2584                           ;LibLCDXC8.h: 90: else;LibLCDXC8.h: 91: LATD=0x3F;
  2585   00106C  0E3F               	movlw	63
  2586   00106E                     L7:
  2587   00106E  6E8C               	movwf	140,c	;volatile
  2588                           
  2589                           ;LibLCDXC8.h: 92: HabilitaLCD();
  2590   001070  ECF7  F00A         	call	_HabilitaLCD	;wreg free
  2591                           
  2592                           ;LibLCDXC8.h: 93: RetardoLCD(4);
  2593   001074  0E04               	movlw	4
  2594   001076  ECB8  F008         	call	_RetardoLCD
  2595                           
  2596                           ;LibLCDXC8.h: 94: if(interfaz==4){
  2597   00107A  0E04               	movlw	4
  2598   00107C  1827               	xorwf	_interfaz^0,w,c
  2599   00107E  A4D8               	btfss	status,2,c
  2600   001080  D011               	goto	l1340
  2601                           
  2602                           ;LibLCDXC8.h: 95: LATD=(LATD & 0b00001111) | 0x20;
  2603   001082  508C               	movf	140,w,c	;volatile
  2604   001084  0B0F               	andlw	15
  2605   001086  0920               	iorlw	32
  2606   001088  6E8C               	movwf	140,c	;volatile
  2607                           
  2608                           ;LibLCDXC8.h: 96: HabilitaLCD();
  2609   00108A  ECF7  F00A         	call	_HabilitaLCD	;wreg free
  2610                           
  2611                           ;LibLCDXC8.h: 97: RetardoLCD(4);
  2612   00108E  0E04               	movlw	4
  2613   001090  ECB8  F008         	call	_RetardoLCD
  2614                           
  2615                           ;LibLCDXC8.h: 98: EnviaDato(0x2F);
  2616   001094  0E2F               	movlw	47
  2617   001096  EC37  F009         	call	_EnviaDato
  2618                           
  2619                           ;LibLCDXC8.h: 99: HabilitaLCD();
  2620   00109A  ECF7  F00A         	call	_HabilitaLCD	;wreg free
  2621                           
  2622                           ;LibLCDXC8.h: 100: RetardoLCD(4);
  2623   00109E  0E04               	movlw	4
  2624   0010A0  ECB8  F008         	call	_RetardoLCD
  2625   0010A4                     l1340:
  2626                           
  2627                           ;LibLCDXC8.h: 101: };LibLCDXC8.h: 102: BorraLCD();
  2628   0010A4  ECD0  F00A         	call	_BorraLCD	;wreg free
  2629                           
  2630                           ;LibLCDXC8.h: 103: EnviaDato(0xF);
  2631   0010A8  0E0F               	movlw	15
  2632   0010AA  EC37  F009         	call	_EnviaDato
  2633                           
  2634                           ;LibLCDXC8.h: 104: HabilitaLCD();
  2635   0010AE  ECF7  F00A         	call	_HabilitaLCD	;wreg free
  2636                           
  2637                           ;LibLCDXC8.h: 105: RetardoLCD(4);
  2638   0010B2  0E04               	movlw	4
  2639   0010B4  ECB8  F008         	call	_RetardoLCD
  2640   0010B8  0012               	return		;funcret
  2641   0010BA                     __end_of_InicializaLCD:
  2642                           	callstack 0
  2643                           
  2644 ;; *************** function _BorraLCD *****************
  2645 ;; Defined at:
  2646 ;;		line 114 in file "LibLCDXC8.h"
  2647 ;; Parameters:    Size  Location     Type
  2648 ;;		None
  2649 ;; Auto vars:     Size  Location     Type
  2650 ;;		None
  2651 ;; Return value:  Size  Location     Type
  2652 ;;                  1    wreg      void 
  2653 ;; Registers used:
  2654 ;;		wreg, status,2, status,0, cstack
  2655 ;; Tracked objects:
  2656 ;;		On entry : 0/0
  2657 ;;		On exit  : 0/0
  2658 ;;		Unchanged: 0/0
  2659 ;; Data sizes:     COMRAM   BANK0   BANK1   BANK2   BANK3   BANK4   BANK5   BANK6   BANK7
  2660 ;;      Params:         0       0       0       0       0       0       0       0       0
  2661 ;;      Locals:         0       0       0       0       0       0       0       0       0
  2662 ;;      Temps:          0       0       0       0       0       0       0       0       0
  2663 ;;      Totals:         0       0       0       0       0       0       0       0       0
  2664 ;;Total ram usage:        0 bytes
  2665 ;; Hardware stack levels used: 1
  2666 ;; Hardware stack levels required when called: 10
  2667 ;; This function calls:
  2668 ;;		_EnviaDato
  2669 ;;		_HabilitaLCD
  2670 ;;		_RetardoLCD
  2671 ;; This function is called by:
  2672 ;;		_InicializaLCD
  2673 ;;		_ComandoLCD
  2674 ;;		_main
  2675 ;;		_PreguntaAlUsuario
  2676 ;; This function uses a non-reentrant model
  2677 ;;
  2678                           
  2679                           	psect	text14
  2680   0015A0                     __ptext14:
  2681                           	callstack 0
  2682   0015A0                     _BorraLCD:
  2683                           	callstack 17
  2684                           
  2685                           ;LibLCDXC8.h: 116: LATA4=0;
  2686                           
  2687                           ;incstack = 0
  2688   0015A0  9889               	bcf	3977,4,c	;volatile
  2689                           
  2690                           ;LibLCDXC8.h: 117: EnviaDato(0x01);
  2691   0015A2  0E01               	movlw	1
  2692   0015A4  EC37  F009         	call	_EnviaDato
  2693                           
  2694                           ;LibLCDXC8.h: 118: HabilitaLCD();
  2695   0015A8  ECF7  F00A         	call	_HabilitaLCD	;wreg free
  2696                           
  2697                           ;LibLCDXC8.h: 119: RetardoLCD(2);
  2698   0015AC  0E02               	movlw	2
  2699   0015AE  ECB8  F008         	call	_RetardoLCD
  2700   0015B2  0012               	return		;funcret
  2701   0015B4                     __end_of_BorraLCD:
  2702                           	callstack 0
  2703                           
  2704 ;; *************** function _DesplazaPantallaD *****************
  2705 ;; Defined at:
  2706 ;;		line 262 in file "LibLCDXC8.h"
  2707 ;; Parameters:    Size  Location     Type
  2708 ;;		None
  2709 ;; Auto vars:     Size  Location     Type
  2710 ;;		None
  2711 ;; Return value:  Size  Location     Type
  2712 ;;                  1    wreg      void 
  2713 ;; Registers used:
  2714 ;;		wreg, status,2, status,0, cstack
  2715 ;; Tracked objects:
  2716 ;;		On entry : 0/0
  2717 ;;		On exit  : 0/0
  2718 ;;		Unchanged: 0/0
  2719 ;; Data sizes:     COMRAM   BANK0   BANK1   BANK2   BANK3   BANK4   BANK5   BANK6   BANK7
  2720 ;;      Params:         0       0       0       0       0       0       0       0       0
  2721 ;;      Locals:         0       0       0       0       0       0       0       0       0
  2722 ;;      Temps:          0       0       0       0       0       0       0       0       0
  2723 ;;      Totals:         0       0       0       0       0       0       0       0       0
  2724 ;;Total ram usage:        0 bytes
  2725 ;; Hardware stack levels used: 1
  2726 ;; Hardware stack levels required when called: 10
  2727 ;; This function calls:
  2728 ;;		_EnviaDato
  2729 ;;		_HabilitaLCD
  2730 ;;		_RetardoLCD
  2731 ;; This function is called by:
  2732 ;;		_Bienvenida
  2733 ;; This function uses a non-reentrant model
  2734 ;;
  2735                           
  2736                           	psect	text15
  2737   0015B4                     __ptext15:
  2738                           	callstack 0
  2739   0015B4                     _DesplazaPantallaD:
  2740                           	callstack 19
  2741                           
  2742                           ;LibLCDXC8.h: 264: LATA4=0;
  2743                           
  2744                           ;incstack = 0
  2745   0015B4  9889               	bcf	3977,4,c	;volatile
  2746                           
  2747                           ;LibLCDXC8.h: 265: EnviaDato(28);
  2748   0015B6  0E1C               	movlw	28
  2749   0015B8  EC37  F009         	call	_EnviaDato
  2750                           
  2751                           ;LibLCDXC8.h: 266: HabilitaLCD();
  2752   0015BC  ECF7  F00A         	call	_HabilitaLCD	;wreg free
  2753                           
  2754                           ;LibLCDXC8.h: 267: RetardoLCD(4);
  2755   0015C0  0E04               	movlw	4
  2756   0015C2  ECB8  F008         	call	_RetardoLCD
  2757   0015C6  0012               	return		;funcret
  2758   0015C8                     __end_of_DesplazaPantallaD:
  2759                           	callstack 0
  2760                           
  2761 ;; *************** function _CrearCaracter *****************
  2762 ;; Defined at:
  2763 ;;		line 309 in file "LibLCDXC8.h"
  2764 ;; Parameters:    Size  Location     Type
  2765 ;;  arreglo         1   30[COMRAM] PTR unsigned char 
  2766 ;;		 -> Marco(8), Estrella(8), 
  2767 ;;  posicionCGRA    1   31[COMRAM] unsigned char 
  2768 ;; Auto vars:     Size  Location     Type
  2769 ;;  i               2   32[COMRAM] int 
  2770 ;; Return value:  Size  Location     Type
  2771 ;;                  1    wreg      void 
  2772 ;; Registers used:
  2773 ;;		wreg, fsr2l, fsr2h, status,2, status,0, prodl, prodh, cstack
  2774 ;; Tracked objects:
  2775 ;;		On entry : 0/0
  2776 ;;		On exit  : 0/0
  2777 ;;		Unchanged: 0/0
  2778 ;; Data sizes:     COMRAM   BANK0   BANK1   BANK2   BANK3   BANK4   BANK5   BANK6   BANK7
  2779 ;;      Params:         2       0       0       0       0       0       0       0       0
  2780 ;;      Locals:         2       0       0       0       0       0       0       0       0
  2781 ;;      Temps:          0       0       0       0       0       0       0       0       0
  2782 ;;      Totals:         4       0       0       0       0       0       0       0       0
  2783 ;;Total ram usage:        4 bytes
  2784 ;; Hardware stack levels used: 1
  2785 ;; Hardware stack levels required when called: 11
  2786 ;; This function calls:
  2787 ;;		_DireccionaLCD
  2788 ;;		_EnviaDato
  2789 ;;		_HabilitaLCD
  2790 ;;		_RetardoLCD
  2791 ;; This function is called by:
  2792 ;;		_Bienvenida
  2793 ;;		_PreguntaAlUsuario
  2794 ;; This function uses a non-reentrant model
  2795 ;;
  2796                           
  2797                           	psect	text16
  2798   0010BA                     __ptext16:
  2799                           	callstack 0
  2800   0010BA                     _CrearCaracter:
  2801                           	callstack 18
  2802                           
  2803                           ;LibLCDXC8.h: 310: LATA4=0;
  2804                           
  2805                           ;incstack = 0
  2806   0010BA  9889               	bcf	3977,4,c	;volatile
  2807                           
  2808                           ;LibLCDXC8.h: 311: EnviaDato(0x40|(posicionCGRAM*8));
  2809   0010BC  5020               	movf	CrearCaracter@posicionCGRAM^0,w,c
  2810   0010BE  0D08               	mullw	8
  2811   0010C0  50F3               	movf	243,w,c
  2812   0010C2  0940               	iorlw	64
  2813   0010C4  EC37  F009         	call	_EnviaDato
  2814                           
  2815                           ;LibLCDXC8.h: 312: HabilitaLCD();
  2816   0010C8  ECF7  F00A         	call	_HabilitaLCD	;wreg free
  2817                           
  2818                           ;LibLCDXC8.h: 313: RetardoLCD(4);
  2819   0010CC  0E04               	movlw	4
  2820   0010CE  ECB8  F008         	call	_RetardoLCD
  2821                           
  2822                           ;LibLCDXC8.h: 314: LATA4=1;
  2823   0010D2  8889               	bsf	3977,4,c	;volatile
  2824                           
  2825                           ;LibLCDXC8.h: 315: RetardoLCD(2);
  2826   0010D4  0E02               	movlw	2
  2827   0010D6  ECB8  F008         	call	_RetardoLCD
  2828                           
  2829                           ;LibLCDXC8.h: 316: for (int i=0;i<8;i++){
  2830   0010DA  0E00               	movlw	0
  2831   0010DC  6E22               	movwf	(CrearCaracter@i+1)^0,c
  2832   0010DE  0E00               	movlw	0
  2833   0010E0  6E21               	movwf	CrearCaracter@i^0,c
  2834   0010E2                     l2170:
  2835                           
  2836                           ;LibLCDXC8.h: 317: EnviaDato(arreglo[i]);
  2837   0010E2  501F               	movf	CrearCaracter@arreglo^0,w,c
  2838   0010E4  2421               	addwf	CrearCaracter@i^0,w,c
  2839   0010E6  6ED9               	movwf	fsr2l,c
  2840   0010E8  6ADA               	clrf	fsr2h,c
  2841   0010EA  50DF               	movf	indf2,w,c
  2842   0010EC  EC37  F009         	call	_EnviaDato
  2843                           
  2844                           ;LibLCDXC8.h: 318: HabilitaLCD();
  2845   0010F0  ECF7  F00A         	call	_HabilitaLCD	;wreg free
  2846                           
  2847                           ;LibLCDXC8.h: 319: RetardoLCD(4);
  2848   0010F4  0E04               	movlw	4
  2849   0010F6  ECB8  F008         	call	_RetardoLCD
  2850   0010FA  4A21               	infsnz	CrearCaracter@i^0,f,c
  2851   0010FC  2A22               	incf	(CrearCaracter@i+1)^0,f,c
  2852   0010FE  BE22               	btfsc	(CrearCaracter@i+1)^0,7,c
  2853   001100  D7F0               	goto	l2170
  2854   001102  5022               	movf	(CrearCaracter@i+1)^0,w,c
  2855   001104  E104               	bnz	u970
  2856   001106  0E08               	movlw	8
  2857   001108  5C21               	subwf	CrearCaracter@i^0,w,c
  2858   00110A  A0D8               	btfss	status,0,c
  2859   00110C  D7EA               	goto	l2170
  2860   00110E                     u970:
  2861                           
  2862                           ;LibLCDXC8.h: 320: };LibLCDXC8.h: 321: DireccionaLCD(0x80);
  2863   00110E  0E80               	movlw	128
  2864   001110  ECAF  F00A         	call	_DireccionaLCD
  2865   001114  0012               	return		;funcret
  2866   001116                     __end_of_CrearCaracter:
  2867                           	callstack 0
  2868                           
  2869 ;; *************** function _DireccionaLCD *****************
  2870 ;; Defined at:
  2871 ;;		line 245 in file "LibLCDXC8.h"
  2872 ;; Parameters:    Size  Location     Type
  2873 ;;  a               1    wreg     unsigned char 
  2874 ;; Auto vars:     Size  Location     Type
  2875 ;;  a               1   29[COMRAM] unsigned char 
  2876 ;; Return value:  Size  Location     Type
  2877 ;;                  1    wreg      void 
  2878 ;; Registers used:
  2879 ;;		wreg, status,2, status,0, cstack
  2880 ;; Tracked objects:
  2881 ;;		On entry : 0/0
  2882 ;;		On exit  : 0/0
  2883 ;;		Unchanged: 0/0
  2884 ;; Data sizes:     COMRAM   BANK0   BANK1   BANK2   BANK3   BANK4   BANK5   BANK6   BANK7
  2885 ;;      Params:         0       0       0       0       0       0       0       0       0
  2886 ;;      Locals:         1       0       0       0       0       0       0       0       0
  2887 ;;      Temps:          0       0       0       0       0       0       0       0       0
  2888 ;;      Totals:         1       0       0       0       0       0       0       0       0
  2889 ;;Total ram usage:        1 bytes
  2890 ;; Hardware stack levels used: 1
  2891 ;; Hardware stack levels required when called: 10
  2892 ;; This function calls:
  2893 ;;		_EnviaDato
  2894 ;;		_HabilitaLCD
  2895 ;;		_RetardoLCD
  2896 ;; This function is called by:
  2897 ;;		_CursorAInicio
  2898 ;;		_CrearCaracter
  2899 ;;		_main
  2900 ;;		_Bienvenida
  2901 ;;		_PreguntaAlUsuario
  2902 ;; This function uses a non-reentrant model
  2903 ;;
  2904                           
  2905                           	psect	text17
  2906   00155E                     __ptext17:
  2907                           	callstack 0
  2908   00155E                     _DireccionaLCD:
  2909                           	callstack 16
  2910                           
  2911                           ;incstack = 0
  2912                           ;DireccionaLCD@a stored from wreg
  2913   00155E  6E1E               	movwf	DireccionaLCD@a^0,c
  2914                           
  2915                           ;LibLCDXC8.h: 248: LATA4=0;
  2916   001560  9889               	bcf	3977,4,c	;volatile
  2917                           
  2918                           ;LibLCDXC8.h: 249: EnviaDato(a);
  2919   001562  501E               	movf	DireccionaLCD@a^0,w,c
  2920   001564  EC37  F009         	call	_EnviaDato
  2921                           
  2922                           ;LibLCDXC8.h: 250: HabilitaLCD();
  2923   001568  ECF7  F00A         	call	_HabilitaLCD	;wreg free
  2924                           
  2925                           ;LibLCDXC8.h: 251: RetardoLCD(4);
  2926   00156C  0E04               	movlw	4
  2927   00156E  ECB8  F008         	call	_RetardoLCD
  2928   001572  0012               	return		;funcret
  2929   001574                     __end_of_DireccionaLCD:
  2930                           	callstack 0
  2931                           
  2932 ;; *************** function _EnviaDato *****************
  2933 ;; Defined at:
  2934 ;;		line 61 in file "LibLCDXC8.h"
  2935 ;; Parameters:    Size  Location     Type
  2936 ;;  a               1    wreg     unsigned char 
  2937 ;; Auto vars:     Size  Location     Type
  2938 ;;  a               1   28[COMRAM] unsigned char 
  2939 ;; Return value:  Size  Location     Type
  2940 ;;                  1    wreg      void 
  2941 ;; Registers used:
  2942 ;;		wreg, status,2, status,0, cstack
  2943 ;; Tracked objects:
  2944 ;;		On entry : 0/0
  2945 ;;		On exit  : 0/0
  2946 ;;		Unchanged: 0/0
  2947 ;; Data sizes:     COMRAM   BANK0   BANK1   BANK2   BANK3   BANK4   BANK5   BANK6   BANK7
  2948 ;;      Params:         0       0       0       0       0       0       0       0       0
  2949 ;;      Locals:         1       0       0       0       0       0       0       0       0
  2950 ;;      Temps:          1       0       0       0       0       0       0       0       0
  2951 ;;      Totals:         2       0       0       0       0       0       0       0       0
  2952 ;;Total ram usage:        2 bytes
  2953 ;; Hardware stack levels used: 1
  2954 ;; Hardware stack levels required when called: 9
  2955 ;; This function calls:
  2956 ;;		_HabilitaLCD
  2957 ;;		_RetardoLCD
  2958 ;; This function is called by:
  2959 ;;		_InicializaLCD
  2960 ;;		_BorraLCD
  2961 ;;		_ComandoLCD
  2962 ;;		_EscribeLCD_c
  2963 ;;		_EscribeLCD_n8
  2964 ;;		_DireccionaLCD
  2965 ;;		_DesplazaPantallaD
  2966 ;;		_CrearCaracter
  2967 ;; This function uses a non-reentrant model
  2968 ;;
  2969                           
  2970                           	psect	text18
  2971   00126E                     __ptext18:
  2972                           	callstack 0
  2973   00126E                     _EnviaDato:
  2974                           	callstack 18
  2975                           
  2976                           ;incstack = 0
  2977                           ;EnviaDato@a stored from wreg
  2978   00126E  6E1D               	movwf	EnviaDato@a^0,c
  2979                           
  2980                           ;LibLCDXC8.h: 62: if(interfaz==4){
  2981   001270  0E04               	movlw	4
  2982   001272  1827               	xorwf	_interfaz^0,w,c
  2983   001274  A4D8               	btfss	status,2,c
  2984   001276  D017               	goto	l1152
  2985                           
  2986                           ;LibLCDXC8.h: 63: LATD=(LATD & 0b00001111) | (a & 0b11110000);
  2987   001278  C01D  F01C         	movff	EnviaDato@a,??_EnviaDato
  2988   00127C  0EF0               	movlw	240
  2989   00127E  161C               	andwf	??_EnviaDato^0,f,c
  2990   001280  508C               	movf	140,w,c	;volatile
  2991   001282  0B0F               	andlw	15
  2992   001284  101C               	iorwf	??_EnviaDato^0,w,c
  2993   001286  6E8C               	movwf	140,c	;volatile
  2994                           
  2995                           ;LibLCDXC8.h: 64: HabilitaLCD();
  2996   001288  ECF7  F00A         	call	_HabilitaLCD	;wreg free
  2997                           
  2998                           ;LibLCDXC8.h: 65: RetardoLCD(1);
  2999   00128C  0E01               	movlw	1
  3000   00128E  ECB8  F008         	call	_RetardoLCD
  3001                           
  3002                           ;LibLCDXC8.h: 66: LATD=(LATD & 0b00001111) | (a<<4);
  3003   001292  C01D  F01C         	movff	EnviaDato@a,??_EnviaDato
  3004   001296  3A1C               	swapf	??_EnviaDato^0,f,c
  3005   001298  0EF0               	movlw	240
  3006   00129A  161C               	andwf	??_EnviaDato^0,f,c
  3007   00129C  508C               	movf	140,w,c	;volatile
  3008   00129E  0B0F               	andlw	15
  3009   0012A0  101C               	iorwf	??_EnviaDato^0,w,c
  3010   0012A2  6E8C               	movwf	140,c	;volatile
  3011                           
  3012                           ;LibLCDXC8.h: 69: }else if(interfaz==8){
  3013   0012A4  0012               	return	
  3014   0012A6                     l1152:
  3015   0012A6  0E08               	movlw	8
  3016   0012A8  1827               	xorwf	_interfaz^0,w,c
  3017   0012AA  A4D8               	btfss	status,2,c
  3018   0012AC  0012               	return	
  3019                           
  3020                           ;LibLCDXC8.h: 70: LATD=a;
  3021   0012AE  C01D  FF8C         	movff	EnviaDato@a,3980	;volatile
  3022   0012B2  0012               	return		;funcret
  3023   0012B4                     __end_of_EnviaDato:
  3024                           	callstack 0
  3025                           
  3026 ;; *************** function _RetardoLCD *****************
  3027 ;; Defined at:
  3028 ;;		line 290 in file "LibLCDXC8.h"
  3029 ;; Parameters:    Size  Location     Type
  3030 ;;  a               1    wreg     unsigned char 
  3031 ;; Auto vars:     Size  Location     Type
  3032 ;;  a               1   26[COMRAM] unsigned char 
  3033 ;; Return value:  Size  Location     Type
  3034 ;;                  1    wreg      void 
  3035 ;; Registers used:
  3036 ;;		wreg, status,2, status,0
  3037 ;; Tracked objects:
  3038 ;;		On entry : 0/0
  3039 ;;		On exit  : 0/0
  3040 ;;		Unchanged: 0/0
  3041 ;; Data sizes:     COMRAM   BANK0   BANK1   BANK2   BANK3   BANK4   BANK5   BANK6   BANK7
  3042 ;;      Params:         0       0       0       0       0       0       0       0       0
  3043 ;;      Locals:         1       0       0       0       0       0       0       0       0
  3044 ;;      Temps:          1       0       0       0       0       0       0       0       0
  3045 ;;      Totals:         2       0       0       0       0       0       0       0       0
  3046 ;;Total ram usage:        2 bytes
  3047 ;; Hardware stack levels used: 1
  3048 ;; Hardware stack levels required when called: 8
  3049 ;; This function calls:
  3050 ;;		Nothing
  3051 ;; This function is called by:
  3052 ;;		_EnviaDato
  3053 ;;		_InicializaLCD
  3054 ;;		_BorraLCD
  3055 ;;		_ComandoLCD
  3056 ;;		_EscribeLCD_c
  3057 ;;		_EscribeLCD_n8
  3058 ;;		_DireccionaLCD
  3059 ;;		_DesplazaPantallaD
  3060 ;;		_CrearCaracter
  3061 ;; This function uses a non-reentrant model
  3062 ;;
  3063                           
  3064                           	psect	text19
  3065   001170                     __ptext19:
  3066                           	callstack 0
  3067   001170                     _RetardoLCD:
  3068                           	callstack 19
  3069                           
  3070                           ;incstack = 0
  3071                           ;RetardoLCD@a stored from wreg
  3072   001170  6E1B               	movwf	RetardoLCD@a^0,c
  3073                           
  3074                           ;LibLCDXC8.h: 291: switch(a){
  3075   001172  D01B               	goto	l1120
  3076   001174                     l1110:
  3077   001174  0E05               	movlw	5
  3078   001176  6E1A               	movwf	??_RetardoLCD^0,c
  3079   001178  0EDE               	movlw	222
  3080   00117A                     u1887:
  3081   00117A  2EE8               	decfsz	wreg,f,c
  3082   00117C  D7FE               	bra	u1887
  3083   00117E  2E1A               	decfsz	??_RetardoLCD^0,f,c
  3084   001180  D7FC               	bra	u1887
  3085                           
  3086                           ;LibLCDXC8.h: 294: break;
  3087   001182  0012               	return	
  3088   001184                     l1112:
  3089   001184  0E53               	movlw	83
  3090   001186                     u1897:
  3091   001186  2EE8               	decfsz	wreg,f,c
  3092   001188  D7FE               	bra	u1897
  3093   00118A  0000               	nop	
  3094                           
  3095                           ;LibLCDXC8.h: 296: _delay((unsigned long)((640)*(1000000/4000000.0)));
  3096   00118C  0E35               	movlw	53
  3097   00118E                     u1907:
  3098   00118E  2EE8               	decfsz	wreg,f,c
  3099   001190  D7FE               	bra	u1907
  3100   001192  0000               	nop	
  3101                           
  3102                           ;LibLCDXC8.h: 298: break;
  3103   001194  0012               	return	
  3104   001196                     l1114:
  3105   001196  0E08               	movlw	8
  3106   001198                     u1917:
  3107   001198  2EE8               	decfsz	wreg,f,c
  3108   00119A  D7FE               	bra	u1917
  3109   00119C  0000               	nop	
  3110                           
  3111                           ;LibLCDXC8.h: 301: break;
  3112   00119E  0012               	return	
  3113   0011A0                     l1116:
  3114   0011A0  0E03               	movlw	3
  3115   0011A2                     u1927:
  3116   0011A2  2EE8               	decfsz	wreg,f,c
  3117   0011A4  D7FE               	bra	u1927
  3118   0011A6  0000               	nop	
  3119                           
  3120                           ;LibLCDXC8.h: 304: break;
  3121   0011A8  0012               	return	
  3122   0011AA                     l1120:
  3123   0011AA  501B               	movf	RetardoLCD@a^0,w,c
  3124                           
  3125                           ; Switch size 1, requested type "simple"
  3126                           ; Number of cases is 4, Range of values is 1 to 4
  3127                           ; switch strategies available:
  3128                           ; Name         Instructions Cycles
  3129                           ; simple_byte           13     7 (average)
  3130                           ;	Chosen strategy is simple_byte
  3131   0011AC  0A01               	xorlw	1	; case 1
  3132   0011AE  B4D8               	btfsc	status,2,c
  3133   0011B0  D7E1               	goto	l1110
  3134   0011B2  0A03               	xorlw	3	; case 2
  3135   0011B4  B4D8               	btfsc	status,2,c
  3136   0011B6  D7E6               	goto	l1112
  3137   0011B8  0A01               	xorlw	1	; case 3
  3138   0011BA  B4D8               	btfsc	status,2,c
  3139   0011BC  D7EC               	goto	l1114
  3140   0011BE  0A07               	xorlw	7	; case 4
  3141   0011C0  A4D8               	btfss	status,2,c
  3142   0011C2  0012               	return	
  3143   0011C4  D7ED               	goto	l1116
  3144   0011C6                     __end_of_RetardoLCD:
  3145                           	callstack 0
  3146                           
  3147 ;; *************** function _HabilitaLCD *****************
  3148 ;; Defined at:
  3149 ;;		line 107 in file "LibLCDXC8.h"
  3150 ;; Parameters:    Size  Location     Type
  3151 ;;		None
  3152 ;; Auto vars:     Size  Location     Type
  3153 ;;		None
  3154 ;; Return value:  Size  Location     Type
  3155 ;;                  1    wreg      void 
  3156 ;; Registers used:
  3157 ;;		wreg
  3158 ;; Tracked objects:
  3159 ;;		On entry : 0/0
  3160 ;;		On exit  : 0/0
  3161 ;;		Unchanged: 0/0
  3162 ;; Data sizes:     COMRAM   BANK0   BANK1   BANK2   BANK3   BANK4   BANK5   BANK6   BANK7
  3163 ;;      Params:         0       0       0       0       0       0       0       0       0
  3164 ;;      Locals:         0       0       0       0       0       0       0       0       0
  3165 ;;      Temps:          0       0       0       0       0       0       0       0       0
  3166 ;;      Totals:         0       0       0       0       0       0       0       0       0
  3167 ;;Total ram usage:        0 bytes
  3168 ;; Hardware stack levels used: 1
  3169 ;; Hardware stack levels required when called: 8
  3170 ;; This function calls:
  3171 ;;		Nothing
  3172 ;; This function is called by:
  3173 ;;		_EnviaDato
  3174 ;;		_InicializaLCD
  3175 ;;		_BorraLCD
  3176 ;;		_ComandoLCD
  3177 ;;		_EscribeLCD_c
  3178 ;;		_EscribeLCD_n8
  3179 ;;		_DireccionaLCD
  3180 ;;		_DesplazaPantallaD
  3181 ;;		_CrearCaracter
  3182 ;; This function uses a non-reentrant model
  3183 ;;
  3184                           
  3185                           	psect	text20
  3186   0015EE                     __ptext20:
  3187                           	callstack 0
  3188   0015EE                     _HabilitaLCD:
  3189                           	callstack 19
  3190                           
  3191                           ;LibLCDXC8.h: 109: LATA5=1;
  3192                           
  3193                           ;incstack = 0
  3194   0015EE  8A89               	bsf	3977,5,c	;volatile
  3195                           
  3196                           ;LibLCDXC8.h: 110: _delay((unsigned long)((40)*(1000000/4000000.0)));
  3197   0015F0  0E03               	movlw	3
  3198   0015F2                     u1937:
  3199   0015F2  2EE8               	decfsz	wreg,f,c
  3200   0015F4  D7FE               	bra	u1937
  3201   0015F6  0000               	nop	
  3202                           
  3203                           ;LibLCDXC8.h: 112: LATA5=0;
  3204   0015F8  9A89               	bcf	3977,5,c	;volatile
  3205   0015FA  0012               	return		;funcret
  3206   0015FC                     __end_of_HabilitaLCD:
  3207                           	callstack 0
  3208                           
  3209 ;; *************** function _ConfiguraLCD *****************
  3210 ;; Defined at:
  3211 ;;		line 57 in file "LibLCDXC8.h"
  3212 ;; Parameters:    Size  Location     Type
  3213 ;;  a               1    wreg     unsigned char 
  3214 ;; Auto vars:     Size  Location     Type
  3215 ;;  a               1   25[COMRAM] unsigned char 
  3216 ;; Return value:  Size  Location     Type
  3217 ;;                  1    wreg      void 
  3218 ;; Registers used:
  3219 ;;		wreg, status,2, status,0
  3220 ;; Tracked objects:
  3221 ;;		On entry : 0/0
  3222 ;;		On exit  : 0/0
  3223 ;;		Unchanged: 0/0
  3224 ;; Data sizes:     COMRAM   BANK0   BANK1   BANK2   BANK3   BANK4   BANK5   BANK6   BANK7
  3225 ;;      Params:         0       0       0       0       0       0       0       0       0
  3226 ;;      Locals:         1       0       0       0       0       0       0       0       0
  3227 ;;      Temps:          0       0       0       0       0       0       0       0       0
  3228 ;;      Totals:         1       0       0       0       0       0       0       0       0
  3229 ;;Total ram usage:        1 bytes
  3230 ;; Hardware stack levels used: 1
  3231 ;; Hardware stack levels required when called: 8
  3232 ;; This function calls:
  3233 ;;		Nothing
  3234 ;; This function is called by:
  3235 ;;		_Bienvenida
  3236 ;; This function uses a non-reentrant model
  3237 ;;
  3238                           
  3239                           	psect	text21
  3240   001530                     __ptext21:
  3241                           	callstack 0
  3242   001530                     _ConfiguraLCD:
  3243                           	callstack 21
  3244                           
  3245                           ;incstack = 0
  3246                           ;ConfiguraLCD@a stored from wreg
  3247   001530  6E1A               	movwf	ConfiguraLCD@a^0,c
  3248                           
  3249                           ;LibLCDXC8.h: 58: if(a==4 | a ==8)
  3250   001532  0E04               	movlw	4
  3251   001534  181A               	xorwf	ConfiguraLCD@a^0,w,c
  3252   001536  B4D8               	btfsc	status,2,c
  3253   001538  D004               	goto	u140
  3254   00153A  0E08               	movlw	8
  3255   00153C  181A               	xorwf	ConfiguraLCD@a^0,w,c
  3256   00153E  A4D8               	btfss	status,2,c
  3257   001540  0012               	return	
  3258   001542                     u140:
  3259                           
  3260                           ;LibLCDXC8.h: 59: interfaz=a;
  3261   001542  C01A  F027         	movff	ConfiguraLCD@a,_interfaz
  3262   001546  0012               	return		;funcret
  3263   001548                     __end_of_ConfiguraLCD:
  3264                           	callstack 0
  3265                           
  3266 ;; *************** function _ISR *****************
  3267 ;; Defined at:
  3268 ;;		line 242 in file "Lab4.c"
  3269 ;; Parameters:    Size  Location     Type
  3270 ;;		None
  3271 ;; Auto vars:     Size  Location     Type
  3272 ;;		None
  3273 ;; Return value:  Size  Location     Type
  3274 ;;                  1    wreg      void 
  3275 ;; Registers used:
  3276 ;;		wreg, status,2, status,0, tblptrl, tblptrh, tblptru, prodl, prodh, cstack
  3277 ;; Tracked objects:
  3278 ;;		On entry : 0/0
  3279 ;;		On exit  : 0/0
  3280 ;;		Unchanged: 0/0
  3281 ;; Data sizes:     COMRAM   BANK0   BANK1   BANK2   BANK3   BANK4   BANK5   BANK6   BANK7
  3282 ;;      Params:         0       0       0       0       0       0       0       0       0
  3283 ;;      Locals:         0       0       0       0       0       0       0       0       0
  3284 ;;      Temps:         10       0       0       0       0       0       0       0       0
  3285 ;;      Totals:        10       0       0       0       0       0       0       0       0
  3286 ;;Total ram usage:       10 bytes
  3287 ;; Hardware stack levels used: 1
  3288 ;; Hardware stack levels required when called: 7
  3289 ;; This function calls:
  3290 ;;		_Borrar
  3291 ;;		_ConfigPregunta
  3292 ;;		___lwdiv
  3293 ;;		i2_BorraLCD
  3294 ;;		i2_DireccionaLCD
  3295 ;;		i2_EscribeLCD_n8
  3296 ;;		i2_MensajeLCD_Var
  3297 ;;		i2_OcultarCursor
  3298 ;; This function is called by:
  3299 ;;		Interrupt level 2
  3300 ;; This function uses a non-reentrant model
  3301 ;;
  3302                           
  3303                           	psect	intcode
  3304   000008                     __pintcode:
  3305                           	callstack 0
  3306   000008                     _ISR:
  3307                           	callstack 16
  3308                           
  3309                           ;incstack = 0
  3310   000008  8246               	bsf	btemp,1,c	;set compiler interrupt flag (level 2)
  3311   00000A  ED51  F004         	call	int_func,f	;refresh shadow registers
  3312                           
  3313                           	psect	intcode_body
  3314   0008A2                     __pintcode_body:
  3315                           	callstack 16
  3316   0008A2                     int_func:
  3317                           	callstack 16
  3318   0008A2  0006               	pop		; remove dummy address from shadow register refresh
  3319   0008A4  CFF3 F014          	movff	prodl,??_ISR+4
  3320   0008A8  CFF4 F015          	movff	prodh,??_ISR+5
  3321   0008AC  CFF6 F016          	movff	tblptrl,??_ISR+6
  3322   0008B0  CFF7 F017          	movff	tblptrh,??_ISR+7
  3323   0008B4  CFF8 F018          	movff	tblptru,??_ISR+8
  3324   0008B8  CFF5 F019          	movff	tablat,??_ISR+9
  3325                           
  3326                           ;Lab4.c: 245: if(TMR0IF == 1){
  3327   0008BC  A4F2               	btfss	4082,2,c	;volatile
  3328   0008BE  D016               	goto	i2l269
  3329                           
  3330                           ;Lab4.c: 246: TMR0 = 3036;
  3331   0008C0  0E0B               	movlw	11
  3332   0008C2  6ED7               	movwf	215,c	;volatile
  3333   0008C4  0EDC               	movlw	220
  3334   0008C6  6ED6               	movwf	214,c	;volatile
  3335                           
  3336                           ;Lab4.c: 247: TMR0IF = 0;
  3337   0008C8  94F2               	bcf	4082,2,c	;volatile
  3338                           
  3339                           ;Lab4.c: 248: LATA1 = LATA1 ^ 1;
  3340   0008CA  B289               	btfsc	3977,1,c	;volatile
  3341   0008CC  D002               	goto	i2u131_40
  3342   0008CE  8289               	bsf	3977,1,c	;volatile
  3343   0008D0  D001               	goto	i2u132_45
  3344   0008D2                     i2u131_40:
  3345   0008D2  9289               	bcf	3977,1,c	;volatile
  3346   0008D4                     i2u132_45:
  3347                           
  3348                           ;Lab4.c: 250: segundosSinActividad++;
  3349   0008D4  2A40               	incf	_segundosSinActividad^0,f,c
  3350                           
  3351                           ;Lab4.c: 253: if(segundosSinActividad == 10){
  3352   0008D6  0E0A               	movlw	10
  3353   0008D8  1840               	xorwf	_segundosSinActividad^0,w,c
  3354   0008DA  B4D8               	btfsc	status,2,c
  3355                           
  3356                           ;Lab4.c: 255: LATA3 = 0;
  3357   0008DC  9689               	bcf	3977,3,c	;volatile
  3358                           
  3359                           ;Lab4.c: 256: };Lab4.c: 259: if(segundosSinActividad >= 20){
  3360   0008DE  0E13               	movlw	19
  3361   0008E0  6440               	cpfsgt	_segundosSinActividad^0,c
  3362   0008E2  D004               	goto	i2l269
  3363   0008E4  0003               	sleep		;# 
  3364                           
  3365                           ;Lab4.c: 263: segundosSinActividad = 0;
  3366   0008E6  6A40               	clrf	_segundosSinActividad^0,c
  3367                           
  3368                           ;Lab4.c: 264: RBIF = 0;
  3369   0008E8  90F2               	bcf	4082,0,c	;volatile
  3370                           
  3371                           ;Lab4.c: 265: TMR0ON = 1;
  3372   0008EA  8ED5               	bsf	4053,7,c	;volatile
  3373   0008EC                     i2l269:
  3374                           
  3375                           ;Lab4.c: 266: };Lab4.c: 267: };Lab4.c: 270: if (TMR1IF){
  3376   0008EC  A09E               	btfss	3998,0,c	;volatile
  3377   0008EE  D011               	goto	i2l272
  3378                           
  3379                           ;Lab4.c: 271: TMR1 = 34286;
  3380   0008F0  0E85               	movlw	133
  3381   0008F2  6ECF               	movwf	207,c	;volatile
  3382   0008F4  0EEE               	movlw	238
  3383   0008F6  6ECE               	movwf	206,c	;volatile
  3384                           
  3385                           ;Lab4.c: 272: TMR1IF = 0;
  3386   0008F8  909E               	bcf	3998,0,c	;volatile
  3387                           
  3388                           ;Lab4.c: 274: segundosSinActividad++;
  3389   0008FA  2A40               	incf	_segundosSinActividad^0,f,c
  3390                           
  3391                           ;Lab4.c: 277: if(segundosSinActividad == 10){
  3392   0008FC  0E0A               	movlw	10
  3393   0008FE  1840               	xorwf	_segundosSinActividad^0,w,c
  3394   000900  B4D8               	btfsc	status,2,c
  3395                           
  3396                           ;Lab4.c: 279: LATA3 = 0;
  3397   000902  9689               	bcf	3977,3,c	;volatile
  3398                           
  3399                           ;Lab4.c: 280: };Lab4.c: 283: if(segundosSinActividad >= 20){
  3400   000904  0E13               	movlw	19
  3401   000906  6440               	cpfsgt	_segundosSinActividad^0,c
  3402   000908  D004               	goto	i2l272
  3403   00090A  0003               	sleep		;# 
  3404                           
  3405                           ;Lab4.c: 287: segundosSinActividad = 0;
  3406   00090C  6A40               	clrf	_segundosSinActividad^0,c
  3407                           
  3408                           ;Lab4.c: 288: RBIF = 0;
  3409   00090E  90F2               	bcf	4082,0,c	;volatile
  3410                           
  3411                           ;Lab4.c: 289: TMR1ON = 1;
  3412   000910  80CD               	bsf	4045,0,c	;volatile
  3413   000912                     i2l272:
  3414                           
  3415                           ;Lab4.c: 290: };Lab4.c: 291: };Lab4.c: 294: if(RBIF == 1){
  3416   000912  A0F2               	btfss	4082,0,c	;volatile
  3417   000914  D0DD               	goto	i2l323
  3418                           
  3419                           ;Lab4.c: 295: if(PORTB != 0b11110000){
  3420   000916  0EF0               	movlw	240
  3421   000918  1881               	xorwf	129,w,c	;volatile
  3422   00091A  B4D8               	btfsc	status,2,c
  3423   00091C  D0D1               	goto	i2l2802
  3424                           
  3425                           ;Lab4.c: 297: segundosSinActividad = 0;
  3426   00091E  6A40               	clrf	_segundosSinActividad^0,c
  3427                           
  3428                           ;Lab4.c: 298: LATB = 0b11111110;
  3429   000920  0EFE               	movlw	254
  3430   000922  6E8A               	movwf	138,c	;volatile
  3431                           
  3432                           ;Lab4.c: 301: if(RB4 == 0){
  3433   000924  B881               	btfsc	3969,4,c	;volatile
  3434   000926  D005               	goto	i2l277
  3435                           
  3436                           ;Lab4.c: 302: teclaLeida = 1;
  3437   000928  0E01               	movlw	1
  3438   00092A                     L8:
  3439   00092A  6E41               	movwf	_teclaLeida^0,c
  3440   00092C                     i2l2694:
  3441                           
  3442                           ;Lab4.c: 303: ConfigPregunta();
  3443   00092C  EC8B  F008         	call	_ConfigPregunta	;wreg free
  3444                           
  3445                           ;Lab4.c: 304: }
  3446   000930  D0C5               	goto	i2l301
  3447   000932                     i2l277:
  3448                           
  3449                           ;Lab4.c: 305: else if(RB5 == 0){
  3450   000932  BA81               	btfsc	3969,5,c	;volatile
  3451   000934  D002               	goto	i2l279
  3452                           
  3453                           ;Lab4.c: 306: teclaLeida = 2;
  3454   000936  0E02               	movlw	2
  3455   000938  D7F8               	goto	L8
  3456   00093A                     i2l279:
  3457                           
  3458                           ;Lab4.c: 309: else if(RB6 == 0){
  3459   00093A  BC81               	btfsc	3969,6,c	;volatile
  3460   00093C  D002               	goto	i2l281
  3461                           
  3462                           ;Lab4.c: 310: teclaLeida = 3;
  3463   00093E  0E03               	movlw	3
  3464   000940  D7F4               	goto	L8
  3465   000942                     i2l281:
  3466                           
  3467                           ;Lab4.c: 313: else if(RB7 == 0){
  3468   000942  BE81               	btfsc	3969,7,c	;volatile
  3469   000944  D003               	goto	i2l2706
  3470                           
  3471                           ;Lab4.c: 314: teclaLeida = '*';
  3472   000946  0E2A               	movlw	42
  3473   000948  6E41               	movwf	_teclaLeida^0,c
  3474                           
  3475                           ;Lab4.c: 315: }
  3476   00094A  D0B8               	goto	i2l301
  3477   00094C                     i2l2706:
  3478                           
  3479                           ;Lab4.c: 318: else{;Lab4.c: 319: LATB = 0b11111101;
  3480   00094C  0EFD               	movlw	253
  3481   00094E  6E8A               	movwf	138,c	;volatile
  3482                           
  3483                           ;Lab4.c: 321: if(RB4 == 0){
  3484   000950  B881               	btfsc	3969,4,c	;volatile
  3485   000952  D002               	goto	i2l285
  3486                           
  3487                           ;Lab4.c: 322: teclaLeida = 4;
  3488   000954  0E04               	movlw	4
  3489   000956  D7E9               	goto	L8
  3490   000958                     i2l285:
  3491                           
  3492                           ;Lab4.c: 325: else if(RB5 == 0){
  3493   000958  BA81               	btfsc	3969,5,c	;volatile
  3494   00095A  D002               	goto	i2l287
  3495                           
  3496                           ;Lab4.c: 326: teclaLeida = 5;
  3497   00095C  0E05               	movlw	5
  3498   00095E  D7E5               	goto	L8
  3499   000960                     i2l287:
  3500                           
  3501                           ;Lab4.c: 329: else if(RB6 == 0){
  3502   000960  BC81               	btfsc	3969,6,c	;volatile
  3503   000962  D002               	goto	i2l289
  3504                           
  3505                           ;Lab4.c: 330: teclaLeida = 6;
  3506   000964  0E06               	movlw	6
  3507   000966  D7E1               	goto	L8
  3508   000968                     i2l289:
  3509                           
  3510                           ;Lab4.c: 333: else if(RB7 == 0){
  3511   000968  BE81               	btfsc	3969,7,c	;volatile
  3512   00096A  D012               	goto	i2l2734
  3513                           
  3514                           ;Lab4.c: 334: LATE = 0b00000011;
  3515   00096C  0E03               	movlw	3
  3516   00096E  6E8D               	movwf	141,c	;volatile
  3517                           
  3518                           ;Lab4.c: 335: BorraLCD();
  3519   000970  ECE4  F00A         	call	i2_BorraLCD	;wreg free
  3520                           
  3521                           ;Lab4.c: 336: OcultarCursor();
  3522   000974  EC11  F00B         	call	i2_OcultarCursor	;wreg free
  3523                           
  3524                           ;Lab4.c: 337: MensajeLCD_Var("    PARADA DE");
  3525   000978  0E3E               	movlw	low STR_5
  3526   00097A  6E06               	movwf	i2MensajeLCD_Var@a^0,c
  3527   00097C  EC9C  F009         	call	i2_MensajeLCD_Var	;wreg free
  3528                           
  3529                           ;Lab4.c: 338: DireccionaLCD(0xC2);
  3530   000980  0EC2               	movlw	194
  3531   000982  ECBA  F00A         	call	i2_DireccionaLCD
  3532                           
  3533                           ;Lab4.c: 339: MensajeLCD_Var("EMERGENCIA");
  3534   000986  0E95               	movlw	low STR_6
  3535   000988  6E06               	movwf	i2MensajeLCD_Var@a^0,c
  3536   00098A  EC9C  F009         	call	i2_MensajeLCD_Var	;wreg free
  3537   00098E                     i2l292:
  3538   00098E  D7FF               	goto	i2l292
  3539   000990                     i2l2734:
  3540                           
  3541                           ;Lab4.c: 345: else{;Lab4.c: 346: LATB = 0b11111011;
  3542   000990  0EFB               	movlw	251
  3543   000992  6E8A               	movwf	138,c	;volatile
  3544                           
  3545                           ;Lab4.c: 348: if(RB4 == 0){
  3546   000994  B881               	btfsc	3969,4,c	;volatile
  3547   000996  D002               	goto	i2l296
  3548                           
  3549                           ;Lab4.c: 349: teclaLeida = 7;
  3550   000998  0E07               	movlw	7
  3551   00099A  D7C7               	goto	L8
  3552   00099C                     i2l296:
  3553                           
  3554                           ;Lab4.c: 352: else if(RB5 == 0){
  3555   00099C  BA81               	btfsc	3969,5,c	;volatile
  3556   00099E  D002               	goto	i2l298
  3557                           
  3558                           ;Lab4.c: 353: teclaLeida = 8;
  3559   0009A0  0E08               	movlw	8
  3560   0009A2  D7C3               	goto	L8
  3561   0009A4                     i2l298:
  3562                           
  3563                           ;Lab4.c: 356: else if(RB6 == 0){
  3564   0009A4  BC81               	btfsc	3969,6,c	;volatile
  3565   0009A6  D002               	goto	i2l300
  3566                           
  3567                           ;Lab4.c: 357: teclaLeida = 9;
  3568   0009A8  0E09               	movlw	9
  3569   0009AA  D7BF               	goto	L8
  3570   0009AC                     i2l300:
  3571                           
  3572                           ;Lab4.c: 360: else if(RB7 == 0){
  3573   0009AC  BE81               	btfsc	3969,7,c	;volatile
  3574   0009AE  D003               	goto	i2l2752
  3575                           
  3576                           ;Lab4.c: 361: Borrar();
  3577   0009B0  EC59  F00A         	call	_Borrar	;wreg free
  3578                           
  3579                           ;Lab4.c: 362: }
  3580   0009B4  D083               	goto	i2l301
  3581   0009B6                     i2l2752:
  3582                           
  3583                           ;Lab4.c: 365: else{;Lab4.c: 366: LATB = 0b11110111;
  3584   0009B6  0EF7               	movlw	247
  3585   0009B8  6E8A               	movwf	138,c	;volatile
  3586                           
  3587                           ;Lab4.c: 368: if(RB4 == 0){
  3588   0009BA  B881               	btfsc	3969,4,c	;volatile
  3589   0009BC  D01D               	goto	i2l304
  3590                           
  3591                           ;Lab4.c: 369: unidades7Seg = 0;
  3592   0009BE  0E00               	movlw	0
  3593   0009C0  6E3D               	movwf	(_unidades7Seg+1)^0,c
  3594   0009C2  0E00               	movlw	0
  3595   0009C4  6E3C               	movwf	_unidades7Seg^0,c
  3596                           
  3597                           ;Lab4.c: 370: piezasTotalesContadas = 0;
  3598   0009C6  0E00               	movlw	0
  3599   0009C8  6E3F               	movwf	(_piezasTotalesContadas+1)^0,c
  3600   0009CA  0E00               	movlw	0
  3601   0009CC  6E3E               	movwf	_piezasTotalesContadas^0,c
  3602                           
  3603                           ;Lab4.c: 371: decenasRGB = 0;
  3604   0009CE  0E00               	movlw	0
  3605   0009D0  6E3B               	movwf	(_decenasRGB+1)^0,c
  3606   0009D2  0E00               	movlw	0
  3607   0009D4  6E3A               	movwf	_decenasRGB^0,c
  3608                           
  3609                           ;Lab4.c: 372: LATE = 0b00000001;
  3610   0009D6  0E01               	movlw	1
  3611   0009D8  6E8D               	movwf	141,c	;volatile
  3612                           
  3613                           ;Lab4.c: 374: if(flagConteoActivo == 1){
  3614   0009DA  0442               	decf	_flagConteoActivo^0,w,c
  3615   0009DC  A4D8               	btfss	status,2,c
  3616   0009DE  D06E               	goto	i2l301
  3617                           
  3618                           ;Lab4.c: 375: DireccionaLCD(0x8B);
  3619   0009E0  0E8B               	movlw	139
  3620   0009E2  ECBA  F00A         	call	i2_DireccionaLCD
  3621                           
  3622                           ;Lab4.c: 376: EscribeLCD_n8(piezasObjetivo - piezasTotalesContadas, 2);
  3623   0009E6  0E02               	movlw	2
  3624   0009E8  6E09               	movwf	i2EscribeLCD_n8@b^0,c
  3625   0009EA  503E               	movf	_piezasTotalesContadas^0,w,c
  3626   0009EC  5C38               	subwf	_piezasObjetivo^0,w,c
  3627   0009EE  ECE0  F006         	call	i2_EscribeLCD_n8
  3628   0009F2                     i2l2762:
  3629                           
  3630                           ;Lab4.c: 377: LATD = unidades7Seg;
  3631   0009F2  C03C  FF8C         	movff	_unidades7Seg,3980	;volatile
  3632   0009F6  D062               	goto	i2l301
  3633   0009F8                     i2l304:
  3634                           
  3635                           ;Lab4.c: 380: else if(RB5 == 0){
  3636   0009F8  BA81               	btfsc	3969,5,c	;volatile
  3637   0009FA  D002               	goto	i2l307
  3638                           
  3639                           ;Lab4.c: 381: teclaLeida = 0;
  3640   0009FC  6A41               	clrf	_teclaLeida^0,c
  3641   0009FE  D796               	goto	i2l2694
  3642   000A00                     i2l307:
  3643                           
  3644                           ;Lab4.c: 384: else if(RB6 == 0){
  3645   000A00  BC81               	btfsc	3969,6,c	;volatile
  3646   000A02  D054               	goto	i2l309
  3647                           
  3648                           ;Lab4.c: 385: Borrar();
  3649   000A04  EC59  F00A         	call	_Borrar	;wreg free
  3650                           
  3651                           ;Lab4.c: 386: piezasTotalesContadas = piezasObjetivo;
  3652   000A08  C038  F03E         	movff	_piezasObjetivo,_piezasTotalesContadas
  3653   000A0C  C039  F03F         	movff	_piezasObjetivo+1,_piezasTotalesContadas+1
  3654                           
  3655                           ;Lab4.c: 387: decenasRGB = piezasObjetivo / 10;
  3656   000A10  C038  F001         	movff	_piezasObjetivo,___lwdiv@dividend
  3657   000A14  C039  F002         	movff	_piezasObjetivo+1,___lwdiv@dividend+1
  3658   000A18  0E00               	movlw	0
  3659   000A1A  6E04               	movwf	(___lwdiv@divisor+1)^0,c
  3660   000A1C  0E0A               	movlw	10
  3661   000A1E  6E03               	movwf	___lwdiv@divisor^0,c
  3662   000A20  EC0E  F009         	call	___lwdiv	;wreg free
  3663   000A24  C001  F03A         	movff	?___lwdiv,_decenasRGB
  3664   000A28  C002  F03B         	movff	?___lwdiv+1,_decenasRGB+1
  3665                           
  3666                           ;Lab4.c: 388: unidades7Seg = piezasObjetivo - decenasRGB * 10;
  3667   000A2C  0EF6               	movlw	246
  3668   000A2E  6E10               	movwf	??_ISR^0,c
  3669   000A30  0EFF               	movlw	255
  3670   000A32  6E11               	movwf	(??_ISR+1)^0,c
  3671   000A34  5010               	movf	??_ISR^0,w,c
  3672   000A36  023A               	mulwf	_decenasRGB^0,c
  3673   000A38  CFF3 F012          	movff	prodl,??_ISR+2
  3674   000A3C  CFF4 F013          	movff	prodh,??_ISR+3
  3675   000A40  023B               	mulwf	(_decenasRGB+1)^0,c
  3676   000A42  50F3               	movf	prodl,w,c
  3677   000A44  2613               	addwf	(??_ISR+3)^0,f,c
  3678   000A46  5011               	movf	(??_ISR+1)^0,w,c
  3679   000A48  023A               	mulwf	_decenasRGB^0,c
  3680   000A4A  50F3               	movf	prodl,w,c
  3681   000A4C  2613               	addwf	(??_ISR+3)^0,f,c
  3682   000A4E  5038               	movf	_piezasObjetivo^0,w,c
  3683   000A50  2412               	addwf	(??_ISR+2)^0,w,c
  3684   000A52  6E3C               	movwf	_unidades7Seg^0,c
  3685   000A54  5039               	movf	(_piezasObjetivo+1)^0,w,c
  3686   000A56  2013               	addwfc	(??_ISR+3)^0,w,c
  3687   000A58  6E3D               	movwf	(_unidades7Seg+1)^0,c
  3688                           
  3689                           ;Lab4.c: 391: if(decenasRGB == 0){
  3690   000A5A  503A               	movf	_decenasRGB^0,w,c
  3691   000A5C  103B               	iorwf	(_decenasRGB+1)^0,w,c
  3692   000A5E  A4D8               	btfss	status,2,c
  3693   000A60  D002               	goto	i2l2778
  3694                           
  3695                           ;Lab4.c: 392: LATE = 0b00000010;
  3696   000A62  0E02               	movlw	2
  3697   000A64  D01A               	goto	L12
  3698   000A66                     i2l2778:
  3699   000A66  043A               	decf	_decenasRGB^0,w,c
  3700   000A68  103B               	iorwf	(_decenasRGB+1)^0,w,c
  3701   000A6A  A4D8               	btfss	status,2,c
  3702   000A6C  D002               	goto	i2l2782
  3703                           
  3704                           ;Lab4.c: 394: LATE = 0b00000011;
  3705   000A6E  0E03               	movlw	3
  3706   000A70  D014               	goto	L12
  3707   000A72                     i2l2782:
  3708   000A72  0E02               	movlw	2
  3709   000A74  183A               	xorwf	_decenasRGB^0,w,c
  3710   000A76  103B               	iorwf	(_decenasRGB+1)^0,w,c
  3711   000A78  A4D8               	btfss	status,2,c
  3712   000A7A  D002               	goto	i2l2786
  3713                           
  3714                           ;Lab4.c: 396: LATE = 0b00000001;
  3715   000A7C  0E01               	movlw	1
  3716   000A7E  D00D               	goto	L12
  3717   000A80                     i2l2786:
  3718   000A80  0E03               	movlw	3
  3719   000A82  183A               	xorwf	_decenasRGB^0,w,c
  3720   000A84  103B               	iorwf	(_decenasRGB+1)^0,w,c
  3721   000A86  A4D8               	btfss	status,2,c
  3722   000A88  D002               	goto	i2l2790
  3723                           
  3724                           ;Lab4.c: 398: LATE = 0b00000101;
  3725   000A8A  0E05               	movlw	5
  3726   000A8C  D006               	goto	L12
  3727   000A8E                     i2l2790:
  3728   000A8E  0E04               	movlw	4
  3729   000A90  183A               	xorwf	_decenasRGB^0,w,c
  3730   000A92  103B               	iorwf	(_decenasRGB+1)^0,w,c
  3731   000A94  A4D8               	btfss	status,2,c
  3732   000A96  D003               	goto	i2l2794
  3733                           
  3734                           ;Lab4.c: 400: LATE = 0b00000100;
  3735   000A98  0E04               	movlw	4
  3736   000A9A                     L12:
  3737   000A9A  6E8D               	movwf	141,c	;volatile
  3738                           
  3739                           ;Lab4.c: 401: }else if(decenasRGB == 5){
  3740   000A9C  D7AA               	goto	i2l2762
  3741   000A9E                     i2l2794:
  3742   000A9E  0E05               	movlw	5
  3743   000AA0  183A               	xorwf	_decenasRGB^0,w,c
  3744   000AA2  103B               	iorwf	(_decenasRGB+1)^0,w,c
  3745   000AA4  A4D8               	btfss	status,2,c
  3746   000AA6  D7A5               	goto	i2l2762
  3747                           
  3748                           ;Lab4.c: 402: LATE = 0b00000000;
  3749   000AA8  6A8D               	clrf	141,c	;volatile
  3750   000AAA  D7A3               	goto	i2l2762
  3751   000AAC                     i2l309:
  3752                           
  3753                           ;Lab4.c: 407: else if(RB7 == 0){
  3754   000AAC  BE81               	btfsc	3969,7,c	;volatile
  3755   000AAE  D006               	goto	i2l301
  3756                           
  3757                           ;Lab4.c: 408: LATA3 = LATA3 ^ 1;
  3758   000AB0  B689               	btfsc	3977,3,c	;volatile
  3759   000AB2  D002               	goto	i2u163_40
  3760   000AB4  8689               	bsf	3977,3,c	;volatile
  3761   000AB6  D001               	goto	i2u164_45
  3762   000AB8                     i2u163_40:
  3763   000AB8  9689               	bcf	3977,3,c	;volatile
  3764   000ABA                     i2u164_45:
  3765                           
  3766                           ;Lab4.c: 409: TMR0ON = 1;
  3767   000ABA  8ED5               	bsf	4053,7,c	;volatile
  3768   000ABC                     i2l301:
  3769                           
  3770                           ;Lab4.c: 410: };Lab4.c: 411: };Lab4.c: 412: };Lab4.c: 413: };Lab4.c: 415: LATB = 0b11110
      +                          000;
  3771   000ABC  0EF0               	movlw	240
  3772   000ABE  6E8A               	movwf	138,c	;volatile
  3773   000AC0                     i2l2802:
  3774                           
  3775                           ;Lab4.c: 416: };Lab4.c: 418: _delay((unsigned long)((300)*(1000000/4000.0)));
  3776   000AC0  0E62               	movlw	98
  3777   000AC2  6E10               	movwf	??_ISR^0,c
  3778   000AC4  0E66               	movlw	102
  3779   000AC6                     i2u194_47:
  3780   000AC6  2EE8               	decfsz	wreg,f,c
  3781   000AC8  D7FE               	bra	i2u194_47
  3782   000ACA  2E10               	decfsz	??_ISR^0,f,c
  3783   000ACC  D7FC               	bra	i2u194_47
  3784                           
  3785                           ;Lab4.c: 419: RBIF = 0;
  3786   000ACE  90F2               	bcf	4082,0,c	;volatile
  3787   000AD0                     i2l323:
  3788   000AD0  C019  FFF5         	movff	??_ISR+9,tablat
  3789   000AD4  C018  FFF8         	movff	??_ISR+8,tblptru
  3790   000AD8  C017  FFF7         	movff	??_ISR+7,tblptrh
  3791   000ADC  C016  FFF6         	movff	??_ISR+6,tblptrl
  3792   000AE0  C015  FFF4         	movff	??_ISR+5,prodh
  3793   000AE4  C014  FFF3         	movff	??_ISR+4,prodl
  3794   000AE8  9246               	bcf	btemp,1,c	;clear compiler interrupt flag (level 2)
  3795   000AEA  0011               	retfie		f
  3796   000AEC                     __end_of_ISR:
  3797                           	callstack 0
  3798                           
  3799 ;; *************** function i2_MensajeLCD_Var *****************
  3800 ;; Defined at:
  3801 ;;		line 236 in file "LibLCDXC8.h"
  3802 ;; Parameters:    Size  Location     Type
  3803 ;;  a               1    5[COMRAM] PTR unsigned char 
  3804 ;;		 -> STR_12(14), STR_11(14), STR_10(13), STR_9(17), 
  3805 ;;		 -> STR_8(12), STR_7(13), STR_6(11), STR_5(14), 
  3806 ;;		 -> STR_4(12), STR_3(16), STR_2(11), STR_1(12), 
  3807 ;; Auto vars:     Size  Location     Type
  3808 ;;  i               2    7[COMRAM] int 
  3809 ;; Return value:  Size  Location     Type
  3810 ;;                  1    wreg      void 
  3811 ;; Registers used:
  3812 ;;		wreg, status,2, status,0, tblptrl, tblptrh, tblptru, cstack
  3813 ;; Tracked objects:
  3814 ;;		On entry : 0/0
  3815 ;;		On exit  : 0/0
  3816 ;;		Unchanged: 0/0
  3817 ;; Data sizes:     COMRAM   BANK0   BANK1   BANK2   BANK3   BANK4   BANK5   BANK6   BANK7
  3818 ;;      Params:         1       0       0       0       0       0       0       0       0
  3819 ;;      Locals:         2       0       0       0       0       0       0       0       0
  3820 ;;      Temps:          1       0       0       0       0       0       0       0       0
  3821 ;;      Totals:         4       0       0       0       0       0       0       0       0
  3822 ;;Total ram usage:        4 bytes
  3823 ;; Hardware stack levels used: 1
  3824 ;; Hardware stack levels required when called: 3
  3825 ;; This function calls:
  3826 ;;		i2_EscribeLCD_c
  3827 ;; This function is called by:
  3828 ;;		_ISR
  3829 ;; This function uses a non-reentrant model
  3830 ;;
  3831                           
  3832                           	psect	text23
  3833   001338                     __ptext23:
  3834                           	callstack 0
  3835   001338                     i2_MensajeLCD_Var:
  3836                           	callstack 19
  3837                           
  3838                           ;LibLCDXC8.h: 241: for (int i=0;a[i] != '\0';i++){
  3839                           
  3840                           ;incstack = 0
  3841   001338  0E00               	movlw	0
  3842   00133A  6E09               	movwf	(i2MensajeLCD_Var@i+1)^0,c
  3843   00133C  0E00               	movlw	0
  3844   00133E  6E08               	movwf	i2MensajeLCD_Var@i^0,c
  3845   001340  D00D               	goto	i2l2470
  3846   001342                     i2l2466:
  3847                           
  3848                           ;LibLCDXC8.h: 242: EscribeLCD_c(a[i]);
  3849   001342  5006               	movf	i2MensajeLCD_Var@a^0,w,c
  3850   001344  2408               	addwf	i2MensajeLCD_Var@i^0,w,c
  3851   001346  6E07               	movwf	??i2_MensajeLCD_Var^0,c
  3852   001348  C007  FFF6         	movff	??i2_MensajeLCD_Var,tblptrl
  3853   00134C                     	if	1	;There is more than 1 active tblptr byte
  3854   00134C  0E08               	movlw	high __smallconst
  3855   00134E  6EF7               	movwf	tblptrh,c
  3856   001350                     	endif
  3857   001350                     	if	0	;tblptru may be non-zero
  3858   001350                     	endif
  3859   001350                     	if	0	;tblptru may be non-zero
  3860   001350                     	endif
  3861   001350  0008               	tblrd		*
  3862   001352  50F5               	movf	tablat,w,c
  3863   001354  ECC5  F00A         	call	i2_EscribeLCD_c
  3864   001358  4A08               	infsnz	i2MensajeLCD_Var@i^0,f,c
  3865   00135A  2A09               	incf	(i2MensajeLCD_Var@i+1)^0,f,c
  3866   00135C                     i2l2470:
  3867   00135C  5006               	movf	i2MensajeLCD_Var@a^0,w,c
  3868   00135E  2408               	addwf	i2MensajeLCD_Var@i^0,w,c
  3869   001360  6E07               	movwf	??i2_MensajeLCD_Var^0,c
  3870   001362  C007  FFF6         	movff	??i2_MensajeLCD_Var,tblptrl
  3871   001366                     	if	1	;There is more than 1 active tblptr byte
  3872   001366  0E08               	movlw	high __smallconst
  3873   001368  6EF7               	movwf	tblptrh,c
  3874   00136A                     	endif
  3875   00136A                     	if	0	;tblptru may be non-zero
  3876   00136A                     	endif
  3877   00136A                     	if	0	;tblptru may be non-zero
  3878   00136A                     	endif
  3879   00136A  0008               	tblrd		*
  3880   00136C  50F5               	movf	tablat,w,c
  3881   00136E  0900               	iorlw	0
  3882   001370  B4D8               	btfsc	status,2,c
  3883   001372  0012               	return	
  3884   001374  D7E6               	goto	i2l2466
  3885   001376                     __end_ofi2_MensajeLCD_Var:
  3886                           	callstack 0
  3887                           
  3888 ;; *************** function ___lwdiv *****************
  3889 ;; Defined at:
  3890 ;;		line 7 in file "C:\Program Files\Microchip\xc8\v2.50\pic\sources\c90\common\lwdiv.c"
  3891 ;; Parameters:    Size  Location     Type
  3892 ;;  dividend        2    0[COMRAM] unsigned int 
  3893 ;;  divisor         2    2[COMRAM] unsigned int 
  3894 ;; Auto vars:     Size  Location     Type
  3895 ;;  quotient        2    4[COMRAM] unsigned int 
  3896 ;;  counter         1    6[COMRAM] unsigned char 
  3897 ;; Return value:  Size  Location     Type
  3898 ;;                  2    0[COMRAM] unsigned int 
  3899 ;; Registers used:
  3900 ;;		wreg, status,2, status,0
  3901 ;; Tracked objects:
  3902 ;;		On entry : 0/0
  3903 ;;		On exit  : 0/0
  3904 ;;		Unchanged: 0/0
  3905 ;; Data sizes:     COMRAM   BANK0   BANK1   BANK2   BANK3   BANK4   BANK5   BANK6   BANK7
  3906 ;;      Params:         4       0       0       0       0       0       0       0       0
  3907 ;;      Locals:         3       0       0       0       0       0       0       0       0
  3908 ;;      Temps:          0       0       0       0       0       0       0       0       0
  3909 ;;      Totals:         7       0       0       0       0       0       0       0       0
  3910 ;;Total ram usage:        7 bytes
  3911 ;; Hardware stack levels used: 1
  3912 ;; This function calls:
  3913 ;;		Nothing
  3914 ;; This function is called by:
  3915 ;;		_ISR
  3916 ;; This function uses a non-reentrant model
  3917 ;;
  3918                           
  3919                           	psect	text24
  3920   00121C                     __ptext24:
  3921                           	callstack 0
  3922   00121C                     ___lwdiv:
  3923                           	callstack 22
  3924                           
  3925                           ;incstack = 0
  3926   00121C  0E00               	movlw	0
  3927   00121E  6E06               	movwf	(___lwdiv@quotient+1)^0,c
  3928   001220  0E00               	movlw	0
  3929   001222  6E05               	movwf	___lwdiv@quotient^0,c
  3930   001224  5003               	movf	___lwdiv@divisor^0,w,c
  3931   001226  1004               	iorwf	(___lwdiv@divisor+1)^0,w,c
  3932   001228  B4D8               	btfsc	status,2,c
  3933   00122A  D01C               	goto	i2l836
  3934   00122C  0E01               	movlw	1
  3935   00122E  6E07               	movwf	___lwdiv@counter^0,c
  3936   001230  D004               	goto	i2l2450
  3937   001232                     i2l2448:
  3938   001232  90D8               	bcf	status,0,c
  3939   001234  3603               	rlcf	___lwdiv@divisor^0,f,c
  3940   001236  3604               	rlcf	(___lwdiv@divisor+1)^0,f,c
  3941   001238  2A07               	incf	___lwdiv@counter^0,f,c
  3942   00123A                     i2l2450:
  3943   00123A  AE04               	btfss	(___lwdiv@divisor+1)^0,7,c
  3944   00123C  D7FA               	goto	i2l2448
  3945   00123E                     i2u112_40:
  3946   00123E  90D8               	bcf	status,0,c
  3947   001240  3605               	rlcf	___lwdiv@quotient^0,f,c
  3948   001242  3606               	rlcf	(___lwdiv@quotient+1)^0,f,c
  3949   001244  5003               	movf	___lwdiv@divisor^0,w,c
  3950   001246  5C01               	subwf	___lwdiv@dividend^0,w,c
  3951   001248  5004               	movf	(___lwdiv@divisor+1)^0,w,c
  3952   00124A  5802               	subwfb	(___lwdiv@dividend+1)^0,w,c
  3953   00124C  A0D8               	btfss	status,0,c
  3954   00124E  D005               	goto	i2l2460
  3955   001250  5003               	movf	___lwdiv@divisor^0,w,c
  3956   001252  5E01               	subwf	___lwdiv@dividend^0,f,c
  3957   001254  5004               	movf	(___lwdiv@divisor+1)^0,w,c
  3958   001256  5A02               	subwfb	(___lwdiv@dividend+1)^0,f,c
  3959   001258  8005               	bsf	___lwdiv@quotient^0,0,c
  3960   00125A                     i2l2460:
  3961   00125A  90D8               	bcf	status,0,c
  3962   00125C  3204               	rrcf	(___lwdiv@divisor+1)^0,f,c
  3963   00125E  3203               	rrcf	___lwdiv@divisor^0,f,c
  3964   001260  2E07               	decfsz	___lwdiv@counter^0,f,c
  3965   001262  D7ED               	goto	i2u112_40
  3966   001264                     i2l836:
  3967   001264  C005  F001         	movff	___lwdiv@quotient,?___lwdiv
  3968   001268  C006  F002         	movff	___lwdiv@quotient+1,?___lwdiv+1
  3969   00126C  0012               	return		;funcret
  3970   00126E                     __end_of___lwdiv:
  3971                           	callstack 0
  3972                           
  3973 ;; *************** function _ConfigPregunta *****************
  3974 ;; Defined at:
  3975 ;;		line 524 in file "Lab4.c"
  3976 ;; Parameters:    Size  Location     Type
  3977 ;;		None
  3978 ;; Auto vars:     Size  Location     Type
  3979 ;;		None
  3980 ;; Return value:  Size  Location     Type
  3981 ;;                  1    wreg      void 
  3982 ;; Registers used:
  3983 ;;		wreg, status,2, status,0, prodl, prodh, cstack
  3984 ;; Tracked objects:
  3985 ;;		On entry : 0/0
  3986 ;;		On exit  : 0/0
  3987 ;;		Unchanged: 0/0
  3988 ;; Data sizes:     COMRAM   BANK0   BANK1   BANK2   BANK3   BANK4   BANK5   BANK6   BANK7
  3989 ;;      Params:         0       0       0       0       0       0       0       0       0
  3990 ;;      Locals:         0       0       0       0       0       0       0       0       0
  3991 ;;      Temps:          2       0       0       0       0       0       0       0       0
  3992 ;;      Totals:         2       0       0       0       0       0       0       0       0
  3993 ;;Total ram usage:        2 bytes
  3994 ;; Hardware stack levels used: 1
  3995 ;; Hardware stack levels required when called: 6
  3996 ;; This function calls:
  3997 ;;		i2_EscribeLCD_n8
  3998 ;;		i2_OcultarCursor
  3999 ;; This function is called by:
  4000 ;;		_ISR
  4001 ;; This function uses a non-reentrant model
  4002 ;;
  4003                           
  4004                           	psect	text25
  4005   001116                     __ptext25:
  4006                           	callstack 0
  4007   001116                     _ConfigPregunta:
  4008                           	callstack 16
  4009                           
  4010                           ;Lab4.c: 525: if(indiceDigitoObjetivo == 0 && modoEdicionObjetivo == 1){
  4011                           
  4012                           ;incstack = 0
  4013   001116  5044               	movf	_indiceDigitoObjetivo^0,w,c
  4014   001118  A4D8               	btfss	status,2,c
  4015   00111A  D00C               	goto	i2l2414
  4016   00111C  0443               	decf	_modoEdicionObjetivo^0,w,c
  4017   00111E  A4D8               	btfss	status,2,c
  4018   001120  D009               	goto	i2l2414
  4019                           
  4020                           ;Lab4.c: 527: EscribeLCD_n8(teclaLeida, 1);
  4021   001122  0E01               	movlw	1
  4022   001124  6E09               	movwf	i2EscribeLCD_n8@b^0,c
  4023   001126  5041               	movf	_teclaLeida^0,w,c
  4024   001128  ECE0  F006         	call	i2_EscribeLCD_n8
  4025                           
  4026                           ;Lab4.c: 528: piezasObjetivo = teclaLeida;
  4027   00112C  C041  F038         	movff	_teclaLeida,_piezasObjetivo
  4028   001130  6A39               	clrf	(_piezasObjetivo+1)^0,c
  4029                           
  4030                           ;Lab4.c: 529: }else if(indiceDigitoObjetivo == 1 && modoEdicionObjetivo == 1){
  4031   001132  D01C               	goto	i2l2424
  4032   001134                     i2l2414:
  4033   001134  0444               	decf	_indiceDigitoObjetivo^0,w,c
  4034   001136  A4D8               	btfss	status,2,c
  4035   001138  D019               	goto	i2l2424
  4036   00113A  0443               	decf	_modoEdicionObjetivo^0,w,c
  4037   00113C  A4D8               	btfss	status,2,c
  4038   00113E  D016               	goto	i2l2424
  4039                           
  4040                           ;Lab4.c: 531: EscribeLCD_n8(teclaLeida, 1);
  4041   001140  0E01               	movlw	1
  4042   001142  6E09               	movwf	i2EscribeLCD_n8@b^0,c
  4043   001144  5041               	movf	_teclaLeida^0,w,c
  4044   001146  ECE0  F006         	call	i2_EscribeLCD_n8
  4045                           
  4046                           ;Lab4.c: 532: piezasObjetivo = piezasObjetivo * 10 + teclaLeida;
  4047   00114A  0E0A               	movlw	10
  4048   00114C  0238               	mulwf	_piezasObjetivo^0,c
  4049   00114E  CFF3 F00E          	movff	prodl,??_ConfigPregunta
  4050   001152  CFF4 F00F          	movff	prodh,??_ConfigPregunta+1
  4051   001156  0239               	mulwf	(_piezasObjetivo+1)^0,c
  4052   001158  50F3               	movf	prodl,w,c
  4053   00115A  260F               	addwf	(??_ConfigPregunta+1)^0,f,c
  4054   00115C  5041               	movf	_teclaLeida^0,w,c
  4055   00115E  240E               	addwf	??_ConfigPregunta^0,w,c
  4056   001160  6E38               	movwf	_piezasObjetivo^0,c
  4057   001162  0E00               	movlw	0
  4058   001164  200F               	addwfc	(??_ConfigPregunta+1)^0,w,c
  4059   001166  6E39               	movwf	(_piezasObjetivo+1)^0,c
  4060                           
  4061                           ;Lab4.c: 533: OcultarCursor();
  4062   001168  EC11  F00B         	call	i2_OcultarCursor	;wreg free
  4063   00116C                     i2l2424:
  4064                           
  4065                           ;Lab4.c: 534: };Lab4.c: 535: indiceDigitoObjetivo++;
  4066   00116C  2A44               	incf	_indiceDigitoObjetivo^0,f,c
  4067   00116E  0012               	return		;funcret
  4068   001170                     __end_of_ConfigPregunta:
  4069                           	callstack 0
  4070                           
  4071 ;; *************** function i2_OcultarCursor *****************
  4072 ;; Defined at:
  4073 ;;		line 323 in file "LibLCDXC8.h"
  4074 ;; Parameters:    Size  Location     Type
  4075 ;;		None
  4076 ;; Auto vars:     Size  Location     Type
  4077 ;;		None
  4078 ;; Return value:  Size  Location     Type
  4079 ;;                  1    wreg      void 
  4080 ;; Registers used:
  4081 ;;		wreg, status,2, status,0, cstack
  4082 ;; Tracked objects:
  4083 ;;		On entry : 0/0
  4084 ;;		On exit  : 0/0
  4085 ;;		Unchanged: 0/0
  4086 ;; Data sizes:     COMRAM   BANK0   BANK1   BANK2   BANK3   BANK4   BANK5   BANK6   BANK7
  4087 ;;      Params:         0       0       0       0       0       0       0       0       0
  4088 ;;      Locals:         0       0       0       0       0       0       0       0       0
  4089 ;;      Temps:          0       0       0       0       0       0       0       0       0
  4090 ;;      Totals:         0       0       0       0       0       0       0       0       0
  4091 ;;Total ram usage:        0 bytes
  4092 ;; Hardware stack levels used: 1
  4093 ;; Hardware stack levels required when called: 5
  4094 ;; This function calls:
  4095 ;;		i2_ComandoLCD
  4096 ;; This function is called by:
  4097 ;;		_ISR
  4098 ;;		_ConfigPregunta
  4099 ;; This function uses a non-reentrant model
  4100 ;;
  4101                           
  4102                           	psect	text26
  4103   001622                     __ptext26:
  4104                           	callstack 0
  4105   001622                     i2_OcultarCursor:
  4106                           	callstack 17
  4107                           
  4108                           ;LibLCDXC8.h: 324: ComandoLCD(0xC);
  4109                           
  4110                           ;incstack = 0
  4111   001622  0E0C               	movlw	12
  4112   001624  EC29  F00A         	call	i2_ComandoLCD
  4113   001628  0012               	return		;funcret
  4114   00162A                     __end_ofi2_OcultarCursor:
  4115                           	callstack 0
  4116                           
  4117 ;; *************** function i2_EscribeLCD_n8 *****************
  4118 ;; Defined at:
  4119 ;;		line 149 in file "LibLCDXC8.h"
  4120 ;; Parameters:    Size  Location     Type
  4121 ;;  a               1    wreg     unsigned char 
  4122 ;;  b               1    8[COMRAM] unsigned char 
  4123 ;; Auto vars:     Size  Location     Type
  4124 ;;  a               1   12[COMRAM] unsigned char 
  4125 ;;  unidad          1   11[COMRAM] unsigned char 
  4126 ;;  decena          1   10[COMRAM] unsigned char 
  4127 ;;  centena         1    9[COMRAM] unsigned char 
  4128 ;; Return value:  Size  Location     Type
  4129 ;;                  1    wreg      void 
  4130 ;; Registers used:
  4131 ;;		wreg, status,2, status,0, cstack
  4132 ;; Tracked objects:
  4133 ;;		On entry : 0/0
  4134 ;;		On exit  : 0/0
  4135 ;;		Unchanged: 0/0
  4136 ;; Data sizes:     COMRAM   BANK0   BANK1   BANK2   BANK3   BANK4   BANK5   BANK6   BANK7
  4137 ;;      Params:         1       0       0       0       0       0       0       0       0
  4138 ;;      Locals:         4       0       0       0       0       0       0       0       0
  4139 ;;      Temps:          0       0       0       0       0       0       0       0       0
  4140 ;;      Totals:         5       0       0       0       0       0       0       0       0
  4141 ;;Total ram usage:        5 bytes
  4142 ;; Hardware stack levels used: 1
  4143 ;; Hardware stack levels required when called: 2
  4144 ;; This function calls:
  4145 ;;		i2_EnviaDato
  4146 ;;		i2_HabilitaLCD
  4147 ;;		i2_RetardoLCD
  4148 ;;		i2___lbdiv
  4149 ;;		i2___lbmod
  4150 ;; This function is called by:
  4151 ;;		_ISR
  4152 ;;		_ConfigPregunta
  4153 ;; This function uses a non-reentrant model
  4154 ;;
  4155                           
  4156                           	psect	text27
  4157   000DC0                     __ptext27:
  4158                           	callstack 0
  4159   000DC0                     i2_EscribeLCD_n8:
  4160                           	callstack 20
  4161                           
  4162                           ;incstack = 0
  4163                           ;i2EscribeLCD_n8@a stored from wreg
  4164   000DC0  6E0D               	movwf	i2EscribeLCD_n8@a^0,c
  4165                           
  4166                           ;LibLCDXC8.h: 154: unsigned char centena,decena,unidad;;LibLCDXC8.h: 155: LATA4=1;
  4167   000DC2  8889               	bsf	3977,4,c	;volatile
  4168                           
  4169                           ;LibLCDXC8.h: 156: switch(b){
  4170   000DC4  D065               	goto	i2l2268
  4171   000DC6                     i2l2236:
  4172   000DC6  0E0A               	movlw	10
  4173   000DC8  6E01               	movwf	i2___lbmod@divisor^0,c
  4174   000DCA  500D               	movf	i2EscribeLCD_n8@a^0,w,c
  4175   000DCC  EC84  F00A         	call	i2___lbmod
  4176   000DD0  6E0C               	movwf	i2EscribeLCD_n8@unidad^0,c
  4177                           
  4178                           ;LibLCDXC8.h: 158: EnviaDato(unidad+48);
  4179   000DD2  500C               	movf	i2EscribeLCD_n8@unidad^0,w,c
  4180   000DD4  0F30               	addlw	48
  4181   000DD6  EC5A  F009         	call	i2_EnviaDato
  4182                           
  4183                           ;LibLCDXC8.h: 159: HabilitaLCD();
  4184   000DDA  ECFE  F00A         	call	i2_HabilitaLCD	;wreg free
  4185                           
  4186                           ;LibLCDXC8.h: 160: RetardoLCD(4);
  4187   000DDE  0E04               	movlw	4
  4188   000DE0  ECE3  F008         	call	i2_RetardoLCD
  4189                           
  4190                           ;LibLCDXC8.h: 161: break;
  4191   000DE4  0012               	return	
  4192   000DE6                     i2l2242:
  4193   000DE6  0E0A               	movlw	10
  4194   000DE8  6E05               	movwf	i2___lbdiv@divisor^0,c
  4195   000DEA  0E64               	movlw	100
  4196   000DEC  6E01               	movwf	i2___lbmod@divisor^0,c
  4197   000DEE  500D               	movf	i2EscribeLCD_n8@a^0,w,c
  4198   000DF0  EC84  F00A         	call	i2___lbmod
  4199   000DF4  ECF4  F009         	call	i2___lbdiv
  4200   000DF8  6E0B               	movwf	i2EscribeLCD_n8@decena^0,c
  4201                           
  4202                           ;LibLCDXC8.h: 163: unidad=a%10;
  4203   000DFA  0E0A               	movlw	10
  4204   000DFC  6E01               	movwf	i2___lbmod@divisor^0,c
  4205   000DFE  500D               	movf	i2EscribeLCD_n8@a^0,w,c
  4206   000E00  EC84  F00A         	call	i2___lbmod
  4207   000E04  6E0C               	movwf	i2EscribeLCD_n8@unidad^0,c
  4208                           
  4209                           ;LibLCDXC8.h: 164: EnviaDato(decena+48);
  4210   000E06  500B               	movf	i2EscribeLCD_n8@decena^0,w,c
  4211   000E08  0F30               	addlw	48
  4212   000E0A  EC5A  F009         	call	i2_EnviaDato
  4213                           
  4214                           ;LibLCDXC8.h: 165: HabilitaLCD();
  4215   000E0E  ECFE  F00A         	call	i2_HabilitaLCD	;wreg free
  4216                           
  4217                           ;LibLCDXC8.h: 166: RetardoLCD(4);
  4218   000E12  0E04               	movlw	4
  4219   000E14  ECE3  F008         	call	i2_RetardoLCD
  4220                           
  4221                           ;LibLCDXC8.h: 167: EnviaDato(unidad+48);
  4222   000E18  500C               	movf	i2EscribeLCD_n8@unidad^0,w,c
  4223   000E1A  0F30               	addlw	48
  4224   000E1C  EC5A  F009         	call	i2_EnviaDato
  4225                           
  4226                           ;LibLCDXC8.h: 168: HabilitaLCD();
  4227   000E20  ECFE  F00A         	call	i2_HabilitaLCD	;wreg free
  4228                           
  4229                           ;LibLCDXC8.h: 169: RetardoLCD(4);
  4230   000E24  0E04               	movlw	4
  4231   000E26  ECE3  F008         	call	i2_RetardoLCD
  4232                           
  4233                           ;LibLCDXC8.h: 170: break;
  4234   000E2A  0012               	return	
  4235   000E2C                     i2l2252:
  4236   000E2C  0E64               	movlw	100
  4237   000E2E  6E05               	movwf	i2___lbdiv@divisor^0,c
  4238   000E30  500D               	movf	i2EscribeLCD_n8@a^0,w,c
  4239   000E32  ECF4  F009         	call	i2___lbdiv
  4240   000E36  6E0A               	movwf	i2EscribeLCD_n8@centena^0,c
  4241                           
  4242                           ;LibLCDXC8.h: 172: decena=(a%100)/10;
  4243   000E38  0E0A               	movlw	10
  4244   000E3A  6E05               	movwf	i2___lbdiv@divisor^0,c
  4245   000E3C  0E64               	movlw	100
  4246   000E3E  6E01               	movwf	i2___lbmod@divisor^0,c
  4247   000E40  500D               	movf	i2EscribeLCD_n8@a^0,w,c
  4248   000E42  EC84  F00A         	call	i2___lbmod
  4249   000E46  ECF4  F009         	call	i2___lbdiv
  4250   000E4A  6E0B               	movwf	i2EscribeLCD_n8@decena^0,c
  4251                           
  4252                           ;LibLCDXC8.h: 173: unidad=a%10;
  4253   000E4C  0E0A               	movlw	10
  4254   000E4E  6E01               	movwf	i2___lbmod@divisor^0,c
  4255   000E50  500D               	movf	i2EscribeLCD_n8@a^0,w,c
  4256   000E52  EC84  F00A         	call	i2___lbmod
  4257   000E56  6E0C               	movwf	i2EscribeLCD_n8@unidad^0,c
  4258                           
  4259                           ;LibLCDXC8.h: 174: EnviaDato(centena+48);
  4260   000E58  500A               	movf	i2EscribeLCD_n8@centena^0,w,c
  4261   000E5A  0F30               	addlw	48
  4262   000E5C  EC5A  F009         	call	i2_EnviaDato
  4263                           
  4264                           ;LibLCDXC8.h: 175: HabilitaLCD();
  4265   000E60  ECFE  F00A         	call	i2_HabilitaLCD	;wreg free
  4266                           
  4267                           ;LibLCDXC8.h: 176: RetardoLCD(4);
  4268   000E64  0E04               	movlw	4
  4269   000E66  ECE3  F008         	call	i2_RetardoLCD
  4270                           
  4271                           ;LibLCDXC8.h: 177: EnviaDato(decena+48);
  4272   000E6A  500B               	movf	i2EscribeLCD_n8@decena^0,w,c
  4273   000E6C  0F30               	addlw	48
  4274   000E6E  EC5A  F009         	call	i2_EnviaDato
  4275                           
  4276                           ;LibLCDXC8.h: 178: HabilitaLCD();
  4277   000E72  ECFE  F00A         	call	i2_HabilitaLCD	;wreg free
  4278                           
  4279                           ;LibLCDXC8.h: 179: RetardoLCD(4);
  4280   000E76  0E04               	movlw	4
  4281   000E78  ECE3  F008         	call	i2_RetardoLCD
  4282                           
  4283                           ;LibLCDXC8.h: 180: EnviaDato(unidad+48);
  4284   000E7C  500C               	movf	i2EscribeLCD_n8@unidad^0,w,c
  4285   000E7E  0F30               	addlw	48
  4286   000E80  EC5A  F009         	call	i2_EnviaDato
  4287                           
  4288                           ;LibLCDXC8.h: 181: HabilitaLCD();
  4289   000E84  ECFE  F00A         	call	i2_HabilitaLCD	;wreg free
  4290                           
  4291                           ;LibLCDXC8.h: 182: RetardoLCD(4);
  4292   000E88  0E04               	movlw	4
  4293   000E8A  ECE3  F008         	call	i2_RetardoLCD
  4294                           
  4295                           ;LibLCDXC8.h: 183: break;
  4296   000E8E  0012               	return	
  4297   000E90                     i2l2268:
  4298   000E90  5009               	movf	i2EscribeLCD_n8@b^0,w,c
  4299                           
  4300                           ; Switch size 1, requested type "simple"
  4301                           ; Number of cases is 3, Range of values is 1 to 3
  4302                           ; switch strategies available:
  4303                           ; Name         Instructions Cycles
  4304                           ; simple_byte           10     6 (average)
  4305                           ;	Chosen strategy is simple_byte
  4306   000E92  0A01               	xorlw	1	; case 1
  4307   000E94  B4D8               	btfsc	status,2,c
  4308   000E96  D797               	goto	i2l2236
  4309   000E98  0A03               	xorlw	3	; case 2
  4310   000E9A  B4D8               	btfsc	status,2,c
  4311   000E9C  D7A4               	goto	i2l2242
  4312   000E9E  0A01               	xorlw	1	; case 3
  4313   000EA0  A4D8               	btfss	status,2,c
  4314   000EA2  0012               	return	
  4315   000EA4  D7C3               	goto	i2l2252
  4316   000EA6                     __end_ofi2_EscribeLCD_n8:
  4317                           	callstack 0
  4318                           
  4319 ;; *************** function i2___lbmod *****************
  4320 ;; Defined at:
  4321 ;;		line 4 in file "C:\Program Files\Microchip\xc8\v2.50\pic\sources\c90\common\lbmod.c"
  4322 ;; Parameters:    Size  Location     Type
  4323 ;;  dividend        1    wreg     unsigned char 
  4324 ;;  divisor         1    0[COMRAM] unsigned char 
  4325 ;; Auto vars:     Size  Location     Type
  4326 ;;  dividend        1    1[COMRAM] unsigned char 
  4327 ;;  rem             1    3[COMRAM] unsigned char 
  4328 ;;  counter         1    2[COMRAM] unsigned char 
  4329 ;; Return value:  Size  Location     Type
  4330 ;;                  1    wreg      unsigned char 
  4331 ;; Registers used:
  4332 ;;		wreg, status,2, status,0
  4333 ;; Tracked objects:
  4334 ;;		On entry : 0/0
  4335 ;;		On exit  : 0/0
  4336 ;;		Unchanged: 0/0
  4337 ;; Data sizes:     COMRAM   BANK0   BANK1   BANK2   BANK3   BANK4   BANK5   BANK6   BANK7
  4338 ;;      Params:         1       0       0       0       0       0       0       0       0
  4339 ;;      Locals:         3       0       0       0       0       0       0       0       0
  4340 ;;      Temps:          0       0       0       0       0       0       0       0       0
  4341 ;;      Totals:         4       0       0       0       0       0       0       0       0
  4342 ;;Total ram usage:        4 bytes
  4343 ;; Hardware stack levels used: 1
  4344 ;; This function calls:
  4345 ;;		Nothing
  4346 ;; This function is called by:
  4347 ;;		i2_EscribeLCD_n8
  4348 ;; This function uses a non-reentrant model
  4349 ;;
  4350                           
  4351                           	psect	text28
  4352   001508                     __ptext28:
  4353                           	callstack 0
  4354   001508                     i2___lbmod:
  4355                           	callstack 21
  4356                           
  4357                           ;incstack = 0
  4358                           ;i2___lbmod@dividend stored from wreg
  4359   001508  6E02               	movwf	i2___lbmod@dividend^0,c
  4360   00150A  0E08               	movlw	8
  4361   00150C  6E03               	movwf	i2___lbmod@counter^0,c
  4362   00150E  6A04               	clrf	i2___lbmod@rem^0,c
  4363   001510                     i2l2130:
  4364   001510  90D8               	bcf	status,0,c
  4365   001512  3402               	rlcf	i2___lbmod@dividend^0,w,c
  4366   001514  3404               	rlcf	i2___lbmod@rem^0,w,c
  4367   001516  6E04               	movwf	i2___lbmod@rem^0,c
  4368   001518  90D8               	bcf	status,0,c
  4369   00151A  3602               	rlcf	i2___lbmod@dividend^0,f,c
  4370   00151C  5001               	movf	i2___lbmod@divisor^0,w,c
  4371   00151E  5C04               	subwf	i2___lbmod@rem^0,w,c
  4372   001520  A0D8               	btfss	status,0,c
  4373   001522  D002               	goto	i2l2138
  4374   001524  5001               	movf	i2___lbmod@divisor^0,w,c
  4375   001526  5E04               	subwf	i2___lbmod@rem^0,f,c
  4376   001528                     i2l2138:
  4377   001528  2E03               	decfsz	i2___lbmod@counter^0,f,c
  4378   00152A  D7F2               	goto	i2l2130
  4379   00152C  5004               	movf	i2___lbmod@rem^0,w,c
  4380   00152E  0012               	return		;funcret
  4381   001530                     __end_ofi2___lbmod:
  4382                           	callstack 0
  4383                           
  4384 ;; *************** function i2___lbdiv *****************
  4385 ;; Defined at:
  4386 ;;		line 4 in file "C:\Program Files\Microchip\xc8\v2.50\pic\sources\c90\common\lbdiv.c"
  4387 ;; Parameters:    Size  Location     Type
  4388 ;;  dividend        1    wreg     unsigned char 
  4389 ;;  divisor         1    4[COMRAM] unsigned char 
  4390 ;; Auto vars:     Size  Location     Type
  4391 ;;  dividend        1    5[COMRAM] unsigned char 
  4392 ;;  quotient        1    7[COMRAM] unsigned char 
  4393 ;;  counter         1    6[COMRAM] unsigned char 
  4394 ;; Return value:  Size  Location     Type
  4395 ;;                  1    wreg      unsigned char 
  4396 ;; Registers used:
  4397 ;;		wreg, status,2, status,0
  4398 ;; Tracked objects:
  4399 ;;		On entry : 0/0
  4400 ;;		On exit  : 0/0
  4401 ;;		Unchanged: 0/0
  4402 ;; Data sizes:     COMRAM   BANK0   BANK1   BANK2   BANK3   BANK4   BANK5   BANK6   BANK7
  4403 ;;      Params:         1       0       0       0       0       0       0       0       0
  4404 ;;      Locals:         3       0       0       0       0       0       0       0       0
  4405 ;;      Temps:          0       0       0       0       0       0       0       0       0
  4406 ;;      Totals:         4       0       0       0       0       0       0       0       0
  4407 ;;Total ram usage:        4 bytes
  4408 ;; Hardware stack levels used: 1
  4409 ;; This function calls:
  4410 ;;		Nothing
  4411 ;; This function is called by:
  4412 ;;		i2_EscribeLCD_n8
  4413 ;; This function uses a non-reentrant model
  4414 ;;
  4415                           
  4416                           	psect	text29
  4417   0013E8                     __ptext29:
  4418                           	callstack 0
  4419   0013E8                     i2___lbdiv:
  4420                           	callstack 21
  4421                           
  4422                           ;incstack = 0
  4423                           ;i2___lbdiv@dividend stored from wreg
  4424   0013E8  6E06               	movwf	i2___lbdiv@dividend^0,c
  4425   0013EA  6A08               	clrf	i2___lbdiv@quotient^0,c
  4426   0013EC  5005               	movf	i2___lbdiv@divisor^0,w,c
  4427   0013EE  B4D8               	btfsc	status,2,c
  4428   0013F0  D015               	goto	i2l2122
  4429   0013F2  0E01               	movlw	1
  4430   0013F4  6E07               	movwf	i2___lbdiv@counter^0,c
  4431   0013F6  D003               	goto	i2l2110
  4432   0013F8                     i2l2106:
  4433   0013F8  90D8               	bcf	status,0,c
  4434   0013FA  3605               	rlcf	i2___lbdiv@divisor^0,f,c
  4435   0013FC  2A07               	incf	i2___lbdiv@counter^0,f,c
  4436   0013FE                     i2l2110:
  4437   0013FE  AE05               	btfss	i2___lbdiv@divisor^0,7,c
  4438   001400  D7FB               	goto	i2l2106
  4439   001402                     i2u93_40:
  4440   001402  90D8               	bcf	status,0,c
  4441   001404  3608               	rlcf	i2___lbdiv@quotient^0,f,c
  4442   001406  5005               	movf	i2___lbdiv@divisor^0,w,c
  4443   001408  5C06               	subwf	i2___lbdiv@dividend^0,w,c
  4444   00140A  A0D8               	btfss	status,0,c
  4445   00140C  D003               	goto	i2l2118
  4446   00140E  5005               	movf	i2___lbdiv@divisor^0,w,c
  4447   001410  5E06               	subwf	i2___lbdiv@dividend^0,f,c
  4448   001412  8008               	bsf	i2___lbdiv@quotient^0,0,c
  4449   001414                     i2l2118:
  4450   001414  90D8               	bcf	status,0,c
  4451   001416  3205               	rrcf	i2___lbdiv@divisor^0,f,c
  4452   001418  2E07               	decfsz	i2___lbdiv@counter^0,f,c
  4453   00141A  D7F3               	goto	i2u93_40
  4454   00141C                     i2l2122:
  4455   00141C  5008               	movf	i2___lbdiv@quotient^0,w,c
  4456   00141E  0012               	return		;funcret
  4457   001420                     __end_ofi2___lbdiv:
  4458                           	callstack 0
  4459                           
  4460 ;; *************** function _Borrar *****************
  4461 ;; Defined at:
  4462 ;;		line 540 in file "Lab4.c"
  4463 ;; Parameters:    Size  Location     Type
  4464 ;;		None
  4465 ;; Auto vars:     Size  Location     Type
  4466 ;;		None
  4467 ;; Return value:  Size  Location     Type
  4468 ;;                  1    wreg      void 
  4469 ;; Registers used:
  4470 ;;		wreg, status,2, status,0, cstack
  4471 ;; Tracked objects:
  4472 ;;		On entry : 0/0
  4473 ;;		On exit  : 0/0
  4474 ;;		Unchanged: 0/0
  4475 ;; Data sizes:     COMRAM   BANK0   BANK1   BANK2   BANK3   BANK4   BANK5   BANK6   BANK7
  4476 ;;      Params:         0       0       0       0       0       0       0       0       0
  4477 ;;      Locals:         0       0       0       0       0       0       0       0       0
  4478 ;;      Temps:          0       0       0       0       0       0       0       0       0
  4479 ;;      Totals:         0       0       0       0       0       0       0       0       0
  4480 ;;Total ram usage:        0 bytes
  4481 ;; Hardware stack levels used: 1
  4482 ;; Hardware stack levels required when called: 6
  4483 ;; This function calls:
  4484 ;;		i2_DireccionaLCD
  4485 ;;		i2_EscribeLCD_c
  4486 ;;		i2_MostrarCursor
  4487 ;; This function is called by:
  4488 ;;		_ISR
  4489 ;; This function uses a non-reentrant model
  4490 ;;
  4491                           
  4492                           	psect	text30
  4493   0014B2                     __ptext30:
  4494                           	callstack 0
  4495   0014B2                     _Borrar:
  4496                           	callstack 16
  4497                           
  4498                           ;Lab4.c: 541: if(modoEdicionObjetivo == 1){
  4499                           
  4500                           ;incstack = 0
  4501   0014B2  0443               	decf	_modoEdicionObjetivo^0,w,c
  4502   0014B4  A4D8               	btfss	status,2,c
  4503   0014B6  0012               	return	
  4504                           
  4505                           ;Lab4.c: 542: MostrarCursor();
  4506   0014B8  EC15  F00B         	call	i2_MostrarCursor	;wreg free
  4507                           
  4508                           ;Lab4.c: 543: piezasObjetivo = 0;
  4509   0014BC  0E00               	movlw	0
  4510   0014BE  6E39               	movwf	(_piezasObjetivo+1)^0,c
  4511   0014C0  0E00               	movlw	0
  4512   0014C2  6E38               	movwf	_piezasObjetivo^0,c
  4513                           
  4514                           ;Lab4.c: 544: indiceDigitoObjetivo = 0;
  4515   0014C4  6A44               	clrf	_indiceDigitoObjetivo^0,c
  4516                           
  4517                           ;Lab4.c: 545: DireccionaLCD(0xC7);
  4518   0014C6  0EC7               	movlw	199
  4519   0014C8  ECBA  F00A         	call	i2_DireccionaLCD
  4520                           
  4521                           ;Lab4.c: 546: EscribeLCD_c(1);
  4522   0014CC  0E01               	movlw	1
  4523   0014CE  ECC5  F00A         	call	i2_EscribeLCD_c
  4524                           
  4525                           ;Lab4.c: 547: EscribeLCD_c(1);
  4526   0014D2  0E01               	movlw	1
  4527   0014D4  ECC5  F00A         	call	i2_EscribeLCD_c
  4528                           
  4529                           ;Lab4.c: 548: DireccionaLCD(0xC7);
  4530   0014D8  0EC7               	movlw	199
  4531   0014DA  ECBA  F00A         	call	i2_DireccionaLCD
  4532   0014DE  0012               	return		;funcret
  4533   0014E0                     __end_of_Borrar:
  4534                           	callstack 0
  4535                           
  4536 ;; *************** function i2_MostrarCursor *****************
  4537 ;; Defined at:
  4538 ;;		line 326 in file "LibLCDXC8.h"
  4539 ;; Parameters:    Size  Location     Type
  4540 ;;		None
  4541 ;; Auto vars:     Size  Location     Type
  4542 ;;		None
  4543 ;; Return value:  Size  Location     Type
  4544 ;;                  1    wreg      void 
  4545 ;; Registers used:
  4546 ;;		wreg, status,2, status,0, cstack
  4547 ;; Tracked objects:
  4548 ;;		On entry : 0/0
  4549 ;;		On exit  : 0/0
  4550 ;;		Unchanged: 0/0
  4551 ;; Data sizes:     COMRAM   BANK0   BANK1   BANK2   BANK3   BANK4   BANK5   BANK6   BANK7
  4552 ;;      Params:         0       0       0       0       0       0       0       0       0
  4553 ;;      Locals:         0       0       0       0       0       0       0       0       0
  4554 ;;      Temps:          0       0       0       0       0       0       0       0       0
  4555 ;;      Totals:         0       0       0       0       0       0       0       0       0
  4556 ;;Total ram usage:        0 bytes
  4557 ;; Hardware stack levels used: 1
  4558 ;; Hardware stack levels required when called: 5
  4559 ;; This function calls:
  4560 ;;		i2_ComandoLCD
  4561 ;; This function is called by:
  4562 ;;		_Borrar
  4563 ;; This function uses a non-reentrant model
  4564 ;;
  4565                           
  4566                           	psect	text31
  4567   00162A                     __ptext31:
  4568                           	callstack 0
  4569   00162A                     i2_MostrarCursor:
  4570                           	callstack 16
  4571                           
  4572                           ;LibLCDXC8.h: 327: ComandoLCD(0xF);
  4573                           
  4574                           ;incstack = 0
  4575   00162A  0E0F               	movlw	15
  4576   00162C  EC29  F00A         	call	i2_ComandoLCD
  4577   001630  0012               	return		;funcret
  4578   001632                     __end_ofi2_MostrarCursor:
  4579                           	callstack 0
  4580                           
  4581 ;; *************** function i2_ComandoLCD *****************
  4582 ;; Defined at:
  4583 ;;		line 127 in file "LibLCDXC8.h"
  4584 ;; Parameters:    Size  Location     Type
  4585 ;;  a               1    wreg     unsigned char 
  4586 ;; Auto vars:     Size  Location     Type
  4587 ;;  a               1    5[COMRAM] unsigned char 
  4588 ;; Return value:  Size  Location     Type
  4589 ;;                  1    wreg      void 
  4590 ;; Registers used:
  4591 ;;		wreg, status,2, status,0, cstack
  4592 ;; Tracked objects:
  4593 ;;		On entry : 0/0
  4594 ;;		On exit  : 0/0
  4595 ;;		Unchanged: 0/0
  4596 ;; Data sizes:     COMRAM   BANK0   BANK1   BANK2   BANK3   BANK4   BANK5   BANK6   BANK7
  4597 ;;      Params:         0       0       0       0       0       0       0       0       0
  4598 ;;      Locals:         1       0       0       0       0       0       0       0       0
  4599 ;;      Temps:          0       0       0       0       0       0       0       0       0
  4600 ;;      Totals:         1       0       0       0       0       0       0       0       0
  4601 ;;Total ram usage:        1 bytes
  4602 ;; Hardware stack levels used: 1
  4603 ;; Hardware stack levels required when called: 4
  4604 ;; This function calls:
  4605 ;;		i2_BorraLCD
  4606 ;;		i2_CursorAInicio
  4607 ;;		i2_EnviaDato
  4608 ;;		i2_HabilitaLCD
  4609 ;;		i2_RetardoLCD
  4610 ;; This function is called by:
  4611 ;;		i2_OcultarCursor
  4612 ;;		i2_MostrarCursor
  4613 ;; This function uses a non-reentrant model
  4614 ;;
  4615                           
  4616                           	psect	text32
  4617   001452                     __ptext32:
  4618                           	callstack 0
  4619   001452                     i2_ComandoLCD:
  4620                           	callstack 17
  4621                           
  4622                           ;incstack = 0
  4623                           ;i2ComandoLCD@a stored from wreg
  4624   001452  6E06               	movwf	i2ComandoLCD@a^0,c
  4625                           
  4626                           ;LibLCDXC8.h: 129: LATA4=0;
  4627   001454  9889               	bcf	3977,4,c	;volatile
  4628                           
  4629                           ;LibLCDXC8.h: 130: if(a==1)
  4630   001456  0406               	decf	i2ComandoLCD@a^0,w,c
  4631   001458  A4D8               	btfss	status,2,c
  4632   00145A  D003               	goto	i2l2090
  4633                           
  4634                           ;LibLCDXC8.h: 131: BorraLCD();
  4635   00145C  ECE4  F00A         	call	i2_BorraLCD	;wreg free
  4636   001460  0012               	return	
  4637   001462                     i2l2090:
  4638                           
  4639                           ;LibLCDXC8.h: 132: else if((a&0b11111110)==2)
  4640   001462  5006               	movf	i2ComandoLCD@a^0,w,c
  4641   001464  0BFE               	andlw	254
  4642   001466  0A02               	xorlw	2
  4643   001468  A4D8               	btfss	status,2,c
  4644   00146A  D003               	goto	i2l2094
  4645                           
  4646                           ;LibLCDXC8.h: 133: CursorAInicio();
  4647   00146C  EC19  F00B         	call	i2_CursorAInicio	;wreg free
  4648   001470  0012               	return	
  4649   001472                     i2l2094:
  4650                           
  4651                           ;LibLCDXC8.h: 134: else{;LibLCDXC8.h: 135: EnviaDato(a);
  4652   001472  5006               	movf	i2ComandoLCD@a^0,w,c
  4653   001474  EC5A  F009         	call	i2_EnviaDato
  4654                           
  4655                           ;LibLCDXC8.h: 136: HabilitaLCD();
  4656   001478  ECFE  F00A         	call	i2_HabilitaLCD	;wreg free
  4657                           
  4658                           ;LibLCDXC8.h: 137: RetardoLCD(4);
  4659   00147C  0E04               	movlw	4
  4660   00147E  ECE3  F008         	call	i2_RetardoLCD
  4661   001482  0012               	return		;funcret
  4662   001484                     __end_ofi2_ComandoLCD:
  4663                           	callstack 0
  4664                           
  4665 ;; *************** function i2_CursorAInicio *****************
  4666 ;; Defined at:
  4667 ;;		line 121 in file "LibLCDXC8.h"
  4668 ;; Parameters:    Size  Location     Type
  4669 ;;		None
  4670 ;; Auto vars:     Size  Location     Type
  4671 ;;		None
  4672 ;; Return value:  Size  Location     Type
  4673 ;;                  1    wreg      void 
  4674 ;; Registers used:
  4675 ;;		wreg, status,2, status,0, cstack
  4676 ;; Tracked objects:
  4677 ;;		On entry : 0/0
  4678 ;;		On exit  : 0/0
  4679 ;;		Unchanged: 0/0
  4680 ;; Data sizes:     COMRAM   BANK0   BANK1   BANK2   BANK3   BANK4   BANK5   BANK6   BANK7
  4681 ;;      Params:         0       0       0       0       0       0       0       0       0
  4682 ;;      Locals:         0       0       0       0       0       0       0       0       0
  4683 ;;      Temps:          0       0       0       0       0       0       0       0       0
  4684 ;;      Totals:         0       0       0       0       0       0       0       0       0
  4685 ;;Total ram usage:        0 bytes
  4686 ;; Hardware stack levels used: 1
  4687 ;; Hardware stack levels required when called: 3
  4688 ;; This function calls:
  4689 ;;		i2_DireccionaLCD
  4690 ;; This function is called by:
  4691 ;;		i2_ComandoLCD
  4692 ;; This function uses a non-reentrant model
  4693 ;;
  4694                           
  4695                           	psect	text33
  4696   001632                     __ptext33:
  4697                           	callstack 0
  4698   001632                     i2_CursorAInicio:
  4699                           	callstack 17
  4700                           
  4701                           ;LibLCDXC8.h: 124: DireccionaLCD(0x80);
  4702                           
  4703                           ;incstack = 0
  4704   001632  0E80               	movlw	128
  4705   001634  ECBA  F00A         	call	i2_DireccionaLCD
  4706   001638  0012               	return		;funcret
  4707   00163A                     __end_ofi2_CursorAInicio:
  4708                           	callstack 0
  4709                           
  4710 ;; *************** function i2_DireccionaLCD *****************
  4711 ;; Defined at:
  4712 ;;		line 245 in file "LibLCDXC8.h"
  4713 ;; Parameters:    Size  Location     Type
  4714 ;;  a               1    wreg     unsigned char 
  4715 ;; Auto vars:     Size  Location     Type
  4716 ;;  a               1    4[COMRAM] unsigned char 
  4717 ;; Return value:  Size  Location     Type
  4718 ;;                  1    wreg      void 
  4719 ;; Registers used:
  4720 ;;		wreg, status,2, status,0, cstack
  4721 ;; Tracked objects:
  4722 ;;		On entry : 0/0
  4723 ;;		On exit  : 0/0
  4724 ;;		Unchanged: 0/0
  4725 ;; Data sizes:     COMRAM   BANK0   BANK1   BANK2   BANK3   BANK4   BANK5   BANK6   BANK7
  4726 ;;      Params:         0       0       0       0       0       0       0       0       0
  4727 ;;      Locals:         1       0       0       0       0       0       0       0       0
  4728 ;;      Temps:          0       0       0       0       0       0       0       0       0
  4729 ;;      Totals:         1       0       0       0       0       0       0       0       0
  4730 ;;Total ram usage:        1 bytes
  4731 ;; Hardware stack levels used: 1
  4732 ;; Hardware stack levels required when called: 2
  4733 ;; This function calls:
  4734 ;;		i2_EnviaDato
  4735 ;;		i2_HabilitaLCD
  4736 ;;		i2_RetardoLCD
  4737 ;; This function is called by:
  4738 ;;		_ISR
  4739 ;;		_Borrar
  4740 ;;		i2_CursorAInicio
  4741 ;; This function uses a non-reentrant model
  4742 ;;
  4743                           
  4744                           	psect	text34
  4745   001574                     __ptext34:
  4746                           	callstack 0
  4747   001574                     i2_DireccionaLCD:
  4748                           	callstack 17
  4749                           
  4750                           ;incstack = 0
  4751                           ;i2DireccionaLCD@a stored from wreg
  4752   001574  6E05               	movwf	i2DireccionaLCD@a^0,c
  4753                           
  4754                           ;LibLCDXC8.h: 248: LATA4=0;
  4755   001576  9889               	bcf	3977,4,c	;volatile
  4756                           
  4757                           ;LibLCDXC8.h: 249: EnviaDato(a);
  4758   001578  5005               	movf	i2DireccionaLCD@a^0,w,c
  4759   00157A  EC5A  F009         	call	i2_EnviaDato
  4760                           
  4761                           ;LibLCDXC8.h: 250: HabilitaLCD();
  4762   00157E  ECFE  F00A         	call	i2_HabilitaLCD	;wreg free
  4763                           
  4764                           ;LibLCDXC8.h: 251: RetardoLCD(4);
  4765   001582  0E04               	movlw	4
  4766   001584  ECE3  F008         	call	i2_RetardoLCD
  4767   001588  0012               	return		;funcret
  4768   00158A                     __end_ofi2_DireccionaLCD:
  4769                           	callstack 0
  4770                           
  4771 ;; *************** function i2_BorraLCD *****************
  4772 ;; Defined at:
  4773 ;;		line 114 in file "LibLCDXC8.h"
  4774 ;; Parameters:    Size  Location     Type
  4775 ;;		None
  4776 ;; Auto vars:     Size  Location     Type
  4777 ;;		None
  4778 ;; Return value:  Size  Location     Type
  4779 ;;                  1    wreg      void 
  4780 ;; Registers used:
  4781 ;;		wreg, status,2, status,0, cstack
  4782 ;; Tracked objects:
  4783 ;;		On entry : 0/0
  4784 ;;		On exit  : 0/0
  4785 ;;		Unchanged: 0/0
  4786 ;; Data sizes:     COMRAM   BANK0   BANK1   BANK2   BANK3   BANK4   BANK5   BANK6   BANK7
  4787 ;;      Params:         0       0       0       0       0       0       0       0       0
  4788 ;;      Locals:         0       0       0       0       0       0       0       0       0
  4789 ;;      Temps:          0       0       0       0       0       0       0       0       0
  4790 ;;      Totals:         0       0       0       0       0       0       0       0       0
  4791 ;;Total ram usage:        0 bytes
  4792 ;; Hardware stack levels used: 1
  4793 ;; Hardware stack levels required when called: 2
  4794 ;; This function calls:
  4795 ;;		i2_EnviaDato
  4796 ;;		i2_HabilitaLCD
  4797 ;;		i2_RetardoLCD
  4798 ;; This function is called by:
  4799 ;;		_ISR
  4800 ;;		i2_ComandoLCD
  4801 ;; This function uses a non-reentrant model
  4802 ;;
  4803                           
  4804                           	psect	text35
  4805   0015C8                     __ptext35:
  4806                           	callstack 0
  4807   0015C8                     i2_BorraLCD:
  4808                           	callstack 18
  4809                           
  4810                           ;LibLCDXC8.h: 116: LATA4=0;
  4811                           
  4812                           ;incstack = 0
  4813   0015C8  9889               	bcf	3977,4,c	;volatile
  4814                           
  4815                           ;LibLCDXC8.h: 117: EnviaDato(0x01);
  4816   0015CA  0E01               	movlw	1
  4817   0015CC  EC5A  F009         	call	i2_EnviaDato
  4818                           
  4819                           ;LibLCDXC8.h: 118: HabilitaLCD();
  4820   0015D0  ECFE  F00A         	call	i2_HabilitaLCD	;wreg free
  4821                           
  4822                           ;LibLCDXC8.h: 119: RetardoLCD(2);
  4823   0015D4  0E02               	movlw	2
  4824   0015D6  ECE3  F008         	call	i2_RetardoLCD
  4825   0015DA  0012               	return		;funcret
  4826   0015DC                     __end_ofi2_BorraLCD:
  4827                           	callstack 0
  4828                           
  4829 ;; *************** function i2_EscribeLCD_c *****************
  4830 ;; Defined at:
  4831 ;;		line 140 in file "LibLCDXC8.h"
  4832 ;; Parameters:    Size  Location     Type
  4833 ;;  a               1    wreg     unsigned char 
  4834 ;; Auto vars:     Size  Location     Type
  4835 ;;  a               1    4[COMRAM] unsigned char 
  4836 ;; Return value:  Size  Location     Type
  4837 ;;                  1    wreg      void 
  4838 ;; Registers used:
  4839 ;;		wreg, status,2, status,0, cstack
  4840 ;; Tracked objects:
  4841 ;;		On entry : 0/0
  4842 ;;		On exit  : 0/0
  4843 ;;		Unchanged: 0/0
  4844 ;; Data sizes:     COMRAM   BANK0   BANK1   BANK2   BANK3   BANK4   BANK5   BANK6   BANK7
  4845 ;;      Params:         0       0       0       0       0       0       0       0       0
  4846 ;;      Locals:         1       0       0       0       0       0       0       0       0
  4847 ;;      Temps:          0       0       0       0       0       0       0       0       0
  4848 ;;      Totals:         1       0       0       0       0       0       0       0       0
  4849 ;;Total ram usage:        1 bytes
  4850 ;; Hardware stack levels used: 1
  4851 ;; Hardware stack levels required when called: 2
  4852 ;; This function calls:
  4853 ;;		i2_EnviaDato
  4854 ;;		i2_HabilitaLCD
  4855 ;;		i2_RetardoLCD
  4856 ;; This function is called by:
  4857 ;;		_Borrar
  4858 ;;		i2_MensajeLCD_Var
  4859 ;; This function uses a non-reentrant model
  4860 ;;
  4861                           
  4862                           	psect	text36
  4863   00158A                     __ptext36:
  4864                           	callstack 0
  4865   00158A                     i2_EscribeLCD_c:
  4866                           	callstack 19
  4867                           
  4868                           ;incstack = 0
  4869                           ;i2EscribeLCD_c@a stored from wreg
  4870   00158A  6E05               	movwf	i2EscribeLCD_c@a^0,c
  4871                           
  4872                           ;LibLCDXC8.h: 144: LATA4=1;
  4873   00158C  8889               	bsf	3977,4,c	;volatile
  4874                           
  4875                           ;LibLCDXC8.h: 145: EnviaDato(a);
  4876   00158E  5005               	movf	i2EscribeLCD_c@a^0,w,c
  4877   001590  EC5A  F009         	call	i2_EnviaDato
  4878                           
  4879                           ;LibLCDXC8.h: 146: HabilitaLCD();
  4880   001594  ECFE  F00A         	call	i2_HabilitaLCD	;wreg free
  4881                           
  4882                           ;LibLCDXC8.h: 147: RetardoLCD(4);
  4883   001598  0E04               	movlw	4
  4884   00159A  ECE3  F008         	call	i2_RetardoLCD
  4885   00159E  0012               	return		;funcret
  4886   0015A0                     __end_ofi2_EscribeLCD_c:
  4887                           	callstack 0
  4888                           
  4889 ;; *************** function i2_EnviaDato *****************
  4890 ;; Defined at:
  4891 ;;		line 61 in file "LibLCDXC8.h"
  4892 ;; Parameters:    Size  Location     Type
  4893 ;;  a               1    wreg     unsigned char 
  4894 ;; Auto vars:     Size  Location     Type
  4895 ;;  a               1    3[COMRAM] unsigned char 
  4896 ;; Return value:  Size  Location     Type
  4897 ;;                  1    wreg      void 
  4898 ;; Registers used:
  4899 ;;		wreg, status,2, status,0, cstack
  4900 ;; Tracked objects:
  4901 ;;		On entry : 0/0
  4902 ;;		On exit  : 0/0
  4903 ;;		Unchanged: 0/0
  4904 ;; Data sizes:     COMRAM   BANK0   BANK1   BANK2   BANK3   BANK4   BANK5   BANK6   BANK7
  4905 ;;      Params:         0       0       0       0       0       0       0       0       0
  4906 ;;      Locals:         1       0       0       0       0       0       0       0       0
  4907 ;;      Temps:          1       0       0       0       0       0       0       0       0
  4908 ;;      Totals:         2       0       0       0       0       0       0       0       0
  4909 ;;Total ram usage:        2 bytes
  4910 ;; Hardware stack levels used: 1
  4911 ;; Hardware stack levels required when called: 1
  4912 ;; This function calls:
  4913 ;;		i2_HabilitaLCD
  4914 ;;		i2_RetardoLCD
  4915 ;; This function is called by:
  4916 ;;		i2_BorraLCD
  4917 ;;		i2_ComandoLCD
  4918 ;;		i2_EscribeLCD_c
  4919 ;;		i2_EscribeLCD_n8
  4920 ;;		i2_DireccionaLCD
  4921 ;; This function uses a non-reentrant model
  4922 ;;
  4923                           
  4924                           	psect	text37
  4925   0012B4                     __ptext37:
  4926                           	callstack 0
  4927   0012B4                     i2_EnviaDato:
  4928                           	callstack 19
  4929                           
  4930                           ;incstack = 0
  4931                           ;i2EnviaDato@a stored from wreg
  4932   0012B4  6E04               	movwf	i2EnviaDato@a^0,c
  4933                           
  4934                           ;LibLCDXC8.h: 62: if(interfaz==4){
  4935   0012B6  0E04               	movlw	4
  4936   0012B8  1827               	xorwf	_interfaz^0,w,c
  4937   0012BA  A4D8               	btfss	status,2,c
  4938   0012BC  D017               	goto	i2l2062
  4939                           
  4940                           ;LibLCDXC8.h: 63: LATD=(LATD & 0b00001111) | (a & 0b11110000);
  4941   0012BE  C004  F003         	movff	i2EnviaDato@a,??i2_EnviaDato
  4942   0012C2  0EF0               	movlw	240
  4943   0012C4  1603               	andwf	??i2_EnviaDato^0,f,c
  4944   0012C6  508C               	movf	140,w,c	;volatile
  4945   0012C8  0B0F               	andlw	15
  4946   0012CA  1003               	iorwf	??i2_EnviaDato^0,w,c
  4947   0012CC  6E8C               	movwf	140,c	;volatile
  4948                           
  4949                           ;LibLCDXC8.h: 64: HabilitaLCD();
  4950   0012CE  ECFE  F00A         	call	i2_HabilitaLCD	;wreg free
  4951                           
  4952                           ;LibLCDXC8.h: 65: RetardoLCD(1);
  4953   0012D2  0E01               	movlw	1
  4954   0012D4  ECE3  F008         	call	i2_RetardoLCD
  4955                           
  4956                           ;LibLCDXC8.h: 66: LATD=(LATD & 0b00001111) | (a<<4);
  4957   0012D8  C004  F003         	movff	i2EnviaDato@a,??i2_EnviaDato
  4958   0012DC  3A03               	swapf	??i2_EnviaDato^0,f,c
  4959   0012DE  0EF0               	movlw	240
  4960   0012E0  1603               	andwf	??i2_EnviaDato^0,f,c
  4961   0012E2  508C               	movf	140,w,c	;volatile
  4962   0012E4  0B0F               	andlw	15
  4963   0012E6  1003               	iorwf	??i2_EnviaDato^0,w,c
  4964   0012E8  6E8C               	movwf	140,c	;volatile
  4965                           
  4966                           ;LibLCDXC8.h: 69: }else if(interfaz==8){
  4967   0012EA  0012               	return	
  4968   0012EC                     i2l2062:
  4969   0012EC  0E08               	movlw	8
  4970   0012EE  1827               	xorwf	_interfaz^0,w,c
  4971   0012F0  A4D8               	btfss	status,2,c
  4972   0012F2  0012               	return	
  4973                           
  4974                           ;LibLCDXC8.h: 70: LATD=a;
  4975   0012F4  C004  FF8C         	movff	i2EnviaDato@a,3980	;volatile
  4976   0012F8  0012               	return		;funcret
  4977   0012FA                     __end_ofi2_EnviaDato:
  4978                           	callstack 0
  4979                           
  4980 ;; *************** function i2_RetardoLCD *****************
  4981 ;; Defined at:
  4982 ;;		line 290 in file "LibLCDXC8.h"
  4983 ;; Parameters:    Size  Location     Type
  4984 ;;  a               1    wreg     unsigned char 
  4985 ;; Auto vars:     Size  Location     Type
  4986 ;;  a               1    1[COMRAM] unsigned char 
  4987 ;; Return value:  Size  Location     Type
  4988 ;;                  1    wreg      void 
  4989 ;; Registers used:
  4990 ;;		wreg, status,2, status,0
  4991 ;; Tracked objects:
  4992 ;;		On entry : 0/0
  4993 ;;		On exit  : 0/0
  4994 ;;		Unchanged: 0/0
  4995 ;; Data sizes:     COMRAM   BANK0   BANK1   BANK2   BANK3   BANK4   BANK5   BANK6   BANK7
  4996 ;;      Params:         0       0       0       0       0       0       0       0       0
  4997 ;;      Locals:         1       0       0       0       0       0       0       0       0
  4998 ;;      Temps:          1       0       0       0       0       0       0       0       0
  4999 ;;      Totals:         2       0       0       0       0       0       0       0       0
  5000 ;;Total ram usage:        2 bytes
  5001 ;; Hardware stack levels used: 1
  5002 ;; This function calls:
  5003 ;;		Nothing
  5004 ;; This function is called by:
  5005 ;;		i2_EnviaDato
  5006 ;;		i2_BorraLCD
  5007 ;;		i2_ComandoLCD
  5008 ;;		i2_EscribeLCD_c
  5009 ;;		i2_EscribeLCD_n8
  5010 ;;		i2_DireccionaLCD
  5011 ;; This function uses a non-reentrant model
  5012 ;;
  5013                           
  5014                           	psect	text38
  5015   0011C6                     __ptext38:
  5016                           	callstack 0
  5017   0011C6                     i2_RetardoLCD:
  5018                           	callstack 20
  5019                           
  5020                           ;incstack = 0
  5021                           ;i2RetardoLCD@a stored from wreg
  5022   0011C6  6E02               	movwf	i2RetardoLCD@a^0,c
  5023                           
  5024                           ;LibLCDXC8.h: 291: switch(a){
  5025   0011C8  D01B               	goto	i2l2050
  5026   0011CA                     i2l2040:
  5027   0011CA  0E05               	movlw	5
  5028   0011CC  6E01               	movwf	??i2_RetardoLCD^0,c
  5029   0011CE  0EDE               	movlw	222
  5030   0011D0                     i2u195_47:
  5031   0011D0  2EE8               	decfsz	wreg,f,c
  5032   0011D2  D7FE               	bra	i2u195_47
  5033   0011D4  2E01               	decfsz	??i2_RetardoLCD^0,f,c
  5034   0011D6  D7FC               	bra	i2u195_47
  5035                           
  5036                           ;LibLCDXC8.h: 294: break;
  5037   0011D8  0012               	return	
  5038   0011DA                     i2l2042:
  5039   0011DA  0E53               	movlw	83
  5040   0011DC                     i2u196_47:
  5041   0011DC  2EE8               	decfsz	wreg,f,c
  5042   0011DE  D7FE               	bra	i2u196_47
  5043   0011E0  0000               	nop	
  5044                           
  5045                           ;LibLCDXC8.h: 296: _delay((unsigned long)((640)*(1000000/4000000.0)));
  5046   0011E2  0E35               	movlw	53
  5047   0011E4                     i2u197_47:
  5048   0011E4  2EE8               	decfsz	wreg,f,c
  5049   0011E6  D7FE               	bra	i2u197_47
  5050   0011E8  0000               	nop	
  5051                           
  5052                           ;LibLCDXC8.h: 298: break;
  5053   0011EA  0012               	return	
  5054   0011EC                     i2l2044:
  5055   0011EC  0E08               	movlw	8
  5056   0011EE                     i2u198_47:
  5057   0011EE  2EE8               	decfsz	wreg,f,c
  5058   0011F0  D7FE               	bra	i2u198_47
  5059   0011F2  0000               	nop	
  5060                           
  5061                           ;LibLCDXC8.h: 301: break;
  5062   0011F4  0012               	return	
  5063   0011F6                     i2l2046:
  5064   0011F6  0E03               	movlw	3
  5065   0011F8                     i2u199_47:
  5066   0011F8  2EE8               	decfsz	wreg,f,c
  5067   0011FA  D7FE               	bra	i2u199_47
  5068   0011FC  0000               	nop	
  5069                           
  5070                           ;LibLCDXC8.h: 304: break;
  5071   0011FE  0012               	return	
  5072   001200                     i2l2050:
  5073   001200  5002               	movf	i2RetardoLCD@a^0,w,c
  5074                           
  5075                           ; Switch size 1, requested type "simple"
  5076                           ; Number of cases is 4, Range of values is 1 to 4
  5077                           ; switch strategies available:
  5078                           ; Name         Instructions Cycles
  5079                           ; simple_byte           13     7 (average)
  5080                           ;	Chosen strategy is simple_byte
  5081   001202  0A01               	xorlw	1	; case 1
  5082   001204  B4D8               	btfsc	status,2,c
  5083   001206  D7E1               	goto	i2l2040
  5084   001208  0A03               	xorlw	3	; case 2
  5085   00120A  B4D8               	btfsc	status,2,c
  5086   00120C  D7E6               	goto	i2l2042
  5087   00120E  0A01               	xorlw	1	; case 3
  5088   001210  B4D8               	btfsc	status,2,c
  5089   001212  D7EC               	goto	i2l2044
  5090   001214  0A07               	xorlw	7	; case 4
  5091   001216  A4D8               	btfss	status,2,c
  5092   001218  0012               	return	
  5093   00121A  D7ED               	goto	i2l2046
  5094   00121C                     __end_ofi2_RetardoLCD:
  5095                           	callstack 0
  5096                           
  5097 ;; *************** function i2_HabilitaLCD *****************
  5098 ;; Defined at:
  5099 ;;		line 107 in file "LibLCDXC8.h"
  5100 ;; Parameters:    Size  Location     Type
  5101 ;;		None
  5102 ;; Auto vars:     Size  Location     Type
  5103 ;;		None
  5104 ;; Return value:  Size  Location     Type
  5105 ;;                  1    wreg      void 
  5106 ;; Registers used:
  5107 ;;		wreg
  5108 ;; Tracked objects:
  5109 ;;		On entry : 0/0
  5110 ;;		On exit  : 0/0
  5111 ;;		Unchanged: 0/0
  5112 ;; Data sizes:     COMRAM   BANK0   BANK1   BANK2   BANK3   BANK4   BANK5   BANK6   BANK7
  5113 ;;      Params:         0       0       0       0       0       0       0       0       0
  5114 ;;      Locals:         0       0       0       0       0       0       0       0       0
  5115 ;;      Temps:          0       0       0       0       0       0       0       0       0
  5116 ;;      Totals:         0       0       0       0       0       0       0       0       0
  5117 ;;Total ram usage:        0 bytes
  5118 ;; Hardware stack levels used: 1
  5119 ;; This function calls:
  5120 ;;		Nothing
  5121 ;; This function is called by:
  5122 ;;		i2_EnviaDato
  5123 ;;		i2_BorraLCD
  5124 ;;		i2_ComandoLCD
  5125 ;;		i2_EscribeLCD_c
  5126 ;;		i2_EscribeLCD_n8
  5127 ;;		i2_DireccionaLCD
  5128 ;; This function uses a non-reentrant model
  5129 ;;
  5130                           
  5131                           	psect	text39
  5132   0015FC                     __ptext39:
  5133                           	callstack 0
  5134   0015FC                     i2_HabilitaLCD:
  5135                           	callstack 20
  5136                           
  5137                           ;LibLCDXC8.h: 109: LATA5=1;
  5138                           
  5139                           ;incstack = 0
  5140   0015FC  8A89               	bsf	3977,5,c	;volatile
  5141                           
  5142                           ;LibLCDXC8.h: 110: _delay((unsigned long)((40)*(1000000/4000000.0)));
  5143   0015FE  0E03               	movlw	3
  5144   001600                     i2u200_47:
  5145   001600  2EE8               	decfsz	wreg,f,c
  5146   001602  D7FE               	bra	i2u200_47
  5147   001604  0000               	nop	
  5148                           
  5149                           ;LibLCDXC8.h: 112: LATA5=0;
  5150   001606  9A89               	bcf	3977,5,c	;volatile
  5151   001608  0012               	return		;funcret
  5152   00160A                     __end_ofi2_HabilitaLCD:
  5153                           	callstack 0
  5154                           
  5155                           	psect	rparam
  5156   000001                     ___rparam_used  equ	1
  5157   000000                     ___param_bank   equ	0
  5158   000000                     __Lparam        equ	__Lrparam
  5159   000000                     __Hparam        equ	__Hrparam
  5160                           
  5161                           	psect	temp
  5162   000046                     btemp:
  5163                           	callstack 0
  5164   000046                     	ds	1
  5165   000046                     int$flags       set	btemp
  5166   000047                     wtemp8          set	btemp+1
  5167   000047                     ttemp5          set	btemp+1
  5168   00004A                     ttemp6          set	btemp+4
  5169   00004E                     ttemp7          set	btemp+8
  5170                           
  5171                           	psect	idloc
  5172                           
  5173                           ;Config register IDLOC0 @ 0x200000
  5174                           ;	unspecified, using default values
  5175   200000                     	org	2097152
  5176   200000  FF                 	db	255
  5177                           
  5178                           ;Config register IDLOC1 @ 0x200001
  5179                           ;	unspecified, using default values
  5180   200001                     	org	2097153
  5181   200001  FF                 	db	255
  5182                           
  5183                           ;Config register IDLOC2 @ 0x200002
  5184                           ;	unspecified, using default values
  5185   200002                     	org	2097154
  5186   200002  FF                 	db	255
  5187                           
  5188                           ;Config register IDLOC3 @ 0x200003
  5189                           ;	unspecified, using default values
  5190   200003                     	org	2097155
  5191   200003  FF                 	db	255
  5192                           
  5193                           ;Config register IDLOC4 @ 0x200004
  5194                           ;	unspecified, using default values
  5195   200004                     	org	2097156
  5196   200004  FF                 	db	255
  5197                           
  5198                           ;Config register IDLOC5 @ 0x200005
  5199                           ;	unspecified, using default values
  5200   200005                     	org	2097157
  5201   200005  FF                 	db	255
  5202                           
  5203                           ;Config register IDLOC6 @ 0x200006
  5204                           ;	unspecified, using default values
  5205   200006                     	org	2097158
  5206   200006  FF                 	db	255
  5207                           
  5208                           ;Config register IDLOC7 @ 0x200007
  5209                           ;	unspecified, using default values
  5210   200007                     	org	2097159
  5211   200007  FF                 	db	255
  5212                           
  5213                           	psect	config
  5214                           
  5215                           ;Config register CONFIG1L @ 0x300000
  5216                           ;	unspecified, using default values
  5217                           ;	PLL Prescaler Selection bits
  5218                           ;	PLLDIV = 0x0, unprogrammed default
  5219                           ;	System Clock Postscaler Selection bits
  5220                           ;	CPUDIV = 0x0, unprogrammed default
  5221                           ;	USB Clock Selection bit (used in Full-Speed USB mode only; UCFG:FSEN = 1)
  5222                           ;	USBDIV = 0x0, unprogrammed default
  5223   300000                     	org	3145728
  5224   300000  00                 	db	0
  5225                           
  5226                           ;Config register CONFIG1H @ 0x300001
  5227                           ;	Oscillator Selection bits
  5228                           ;	FOSC = INTOSC_EC, Internal oscillator, CLKO function on RA6, EC used by USB (INTCKO)
  5229                           ;	Fail-Safe Clock Monitor Enable bit
  5230                           ;	FCMEN = 0x0, unprogrammed default
  5231                           ;	Internal/External Oscillator Switchover bit
  5232                           ;	IESO = 0x0, unprogrammed default
  5233   300001                     	org	3145729
  5234   300001  09                 	db	9
  5235                           
  5236                           ;Config register CONFIG2L @ 0x300002
  5237                           ;	unspecified, using default values
  5238                           ;	Power-up Timer Enable bit
  5239                           ;	PWRT = 0x1, unprogrammed default
  5240                           ;	Brown-out Reset Enable bits
  5241                           ;	BOR = 0x3, unprogrammed default
  5242                           ;	Brown-out Reset Voltage bits
  5243                           ;	BORV = 0x3, unprogrammed default
  5244                           ;	USB Voltage Regulator Enable bit
  5245                           ;	VREGEN = 0x0, unprogrammed default
  5246   300002                     	org	3145730
  5247   300002  1F                 	db	31
  5248                           
  5249                           ;Config register CONFIG2H @ 0x300003
  5250                           ;	Watchdog Timer Enable bit
  5251                           ;	WDT = OFF, WDT disabled (control is placed on the SWDTEN bit)
  5252                           ;	Watchdog Timer Postscale Select bits
  5253                           ;	WDTPS = 0xF, unprogrammed default
  5254   300003                     	org	3145731
  5255   300003  1E                 	db	30
  5256                           
  5257                           ; Padding undefined space
  5258   300004                     	org	3145732
  5259   300004  FF                 	db	255
  5260                           
  5261                           ;Config register CONFIG3H @ 0x300005
  5262                           ;	unspecified, using default values
  5263                           ;	CCP2 MUX bit
  5264                           ;	CCP2MX = 0x1, unprogrammed default
  5265                           ;	PORTB A/D Enable bit
  5266                           ;	PBADEN = 0x1, unprogrammed default
  5267                           ;	Low-Power Timer 1 Oscillator Enable bit
  5268                           ;	LPT1OSC = 0x0, unprogrammed default
  5269                           ;	MCLR Pin Enable bit
  5270                           ;	MCLRE = 0x1, unprogrammed default
  5271   300005                     	org	3145733
  5272   300005  83                 	db	131
  5273                           
  5274                           ;Config register CONFIG4L @ 0x300006
  5275                           ;	Stack Full/Underflow Reset Enable bit
  5276                           ;	STVREN = 0x1, unprogrammed default
  5277                           ;	Single-Supply ICSP Enable bit
  5278                           ;	LVP = OFF, Single-Supply ICSP disabled
  5279                           ;	Dedicated In-Circuit Debug/Programming Port (ICPORT) Enable bit
  5280                           ;	ICPRT = 0x0, unprogrammed default
  5281                           ;	Extended Instruction Set Enable bit
  5282                           ;	XINST = 0x0, unprogrammed default
  5283                           ;	Background Debugger Enable bit
  5284                           ;	DEBUG = 0x1, unprogrammed default
  5285   300006                     	org	3145734
  5286   300006  81                 	db	129
  5287                           
  5288                           ; Padding undefined space
  5289   300007                     	org	3145735
  5290   300007  FF                 	db	255
  5291                           
  5292                           ;Config register CONFIG5L @ 0x300008
  5293                           ;	unspecified, using default values
  5294                           ;	Code Protection bit
  5295                           ;	CP0 = 0x1, unprogrammed default
  5296                           ;	Code Protection bit
  5297                           ;	CP1 = 0x1, unprogrammed default
  5298                           ;	Code Protection bit
  5299                           ;	CP2 = 0x1, unprogrammed default
  5300                           ;	Code Protection bit
  5301                           ;	CP3 = 0x1, unprogrammed default
  5302   300008                     	org	3145736
  5303   300008  0F                 	db	15
  5304                           
  5305                           ;Config register CONFIG5H @ 0x300009
  5306                           ;	unspecified, using default values
  5307                           ;	Boot Block Code Protection bit
  5308                           ;	CPB = 0x1, unprogrammed default
  5309                           ;	Data EEPROM Code Protection bit
  5310                           ;	CPD = 0x1, unprogrammed default
  5311   300009                     	org	3145737
  5312   300009  C0                 	db	192
  5313                           
  5314                           ;Config register CONFIG6L @ 0x30000A
  5315                           ;	unspecified, using default values
  5316                           ;	Write Protection bit
  5317                           ;	WRT0 = 0x1, unprogrammed default
  5318                           ;	Write Protection bit
  5319                           ;	WRT1 = 0x1, unprogrammed default
  5320                           ;	Write Protection bit
  5321                           ;	WRT2 = 0x1, unprogrammed default
  5322                           ;	Write Protection bit
  5323                           ;	WRT3 = 0x1, unprogrammed default
  5324   30000A                     	org	3145738
  5325   30000A  0F                 	db	15
  5326                           
  5327                           ;Config register CONFIG6H @ 0x30000B
  5328                           ;	unspecified, using default values
  5329                           ;	Configuration Register Write Protection bit
  5330                           ;	WRTC = 0x1, unprogrammed default
  5331                           ;	Boot Block Write Protection bit
  5332                           ;	WRTB = 0x1, unprogrammed default
  5333                           ;	Data EEPROM Write Protection bit
  5334                           ;	WRTD = 0x1, unprogrammed default
  5335   30000B                     	org	3145739
  5336   30000B  E0                 	db	224
  5337                           
  5338                           ;Config register CONFIG7L @ 0x30000C
  5339                           ;	unspecified, using default values
  5340                           ;	Table Read Protection bit
  5341                           ;	EBTR0 = 0x1, unprogrammed default
  5342                           ;	Table Read Protection bit
  5343                           ;	EBTR1 = 0x1, unprogrammed default
  5344                           ;	Table Read Protection bit
  5345                           ;	EBTR2 = 0x1, unprogrammed default
  5346                           ;	Table Read Protection bit
  5347                           ;	EBTR3 = 0x1, unprogrammed default
  5348   30000C                     	org	3145740
  5349   30000C  0F                 	db	15
  5350                           
  5351                           ;Config register CONFIG7H @ 0x30000D
  5352                           ;	unspecified, using default values
  5353                           ;	Boot Block Table Read Protection bit
  5354                           ;	EBTRB = 0x1, unprogrammed default
  5355   30000D                     	org	3145741
  5356   30000D  40                 	db	64
  5357                           tosu	equ	0xFFF
  5358                           tosh	equ	0xFFE
  5359                           tosl	equ	0xFFD
  5360                           stkptr	equ	0xFFC
  5361                           pclatu	equ	0xFFB
  5362                           pclath	equ	0xFFA
  5363                           pcl	equ	0xFF9
  5364                           tblptru	equ	0xFF8
  5365                           tblptrh	equ	0xFF7
  5366                           tblptrl	equ	0xFF6
  5367                           tablat	equ	0xFF5
  5368                           prodh	equ	0xFF4
  5369                           prodl	equ	0xFF3
  5370                           indf0	equ	0xFEF
  5371                           postinc0	equ	0xFEE
  5372                           postdec0	equ	0xFED
  5373                           preinc0	equ	0xFEC
  5374                           plusw0	equ	0xFEB
  5375                           fsr0h	equ	0xFEA
  5376                           fsr0l	equ	0xFE9
  5377                           wreg	equ	0xFE8
  5378                           indf1	equ	0xFE7
  5379                           postinc1	equ	0xFE6
  5380                           postdec1	equ	0xFE5
  5381                           preinc1	equ	0xFE4
  5382                           plusw1	equ	0xFE3
  5383                           fsr1h	equ	0xFE2
  5384                           fsr1l	equ	0xFE1
  5385                           bsr	equ	0xFE0
  5386                           indf2	equ	0xFDF
  5387                           postinc2	equ	0xFDE
  5388                           postdec2	equ	0xFDD
  5389                           preinc2	equ	0xFDC
  5390                           plusw2	equ	0xFDB
  5391                           fsr2h	equ	0xFDA
  5392                           fsr2l	equ	0xFD9
  5393                           status	equ	0xFD8

Data Sizes:
    Strings     159
    Constant    0
    Data        17
    BSS         13
    Persistent  1
    Stack       0

Auto Spaces:
    Space          Size  Autos    Used
    COMRAM           94     38      69
    BANK0           160      2       2
    BANK1           256      0       0
    BANK2           256      0       0
    BANK3           256      0       0
    BANK4           256      0       0
    BANK5           256      0       0
    BANK6           256      0       0
    BANK7           256      0       0

Pointer List with Targets:

    CrearCaracter@arreglo	PTR unsigned char  size(1) Largest target is 8
		 -> Estrella(COMRAM[8]), Marco(COMRAM[8]), 

    MensajeLCD_Var@a	PTR unsigned char  size(1) Largest target is 17
		 -> STR_1(CODE[12]), STR_10(CODE[13]), STR_11(CODE[14]), STR_12(CODE[14]), 
		 -> STR_2(CODE[11]), STR_3(CODE[16]), STR_4(CODE[12]), STR_5(CODE[14]), 
		 -> STR_6(CODE[11]), STR_7(CODE[13]), STR_8(CODE[12]), STR_9(CODE[17]), 


Critical Paths under _main in COMRAM

    _main->_Bienvenida
    _main->_EscribeLCD_n8
    _PreguntaAlUsuario->_CrearCaracter
    _PreguntaAlUsuario->_MensajeLCD_Var
    _MostrarCursor->_ComandoLCD
    _EscribeLCD_n8->___lbdiv
    ___lbdiv->___lbmod
    _Bienvenida->_CrearCaracter
    _Bienvenida->_MensajeLCD_Var
    _OcultarCursor->_ComandoLCD
    _CursorAInicio->_DireccionaLCD
    _MensajeLCD_Var->_EscribeLCD_c
    _EscribeLCD_c->_EnviaDato
    _InicializaLCD->_EnviaDato
    _BorraLCD->_EnviaDato
    _DesplazaPantallaD->_EnviaDato
    _CrearCaracter->_DireccionaLCD
    _DireccionaLCD->_EnviaDato
    _EnviaDato->_RetardoLCD

Critical Paths under _ISR in COMRAM

    _ISR->_ConfigPregunta
    i2_MensajeLCD_Var->i2_EscribeLCD_c
    _ConfigPregunta->i2_EscribeLCD_n8
    i2_OcultarCursor->i2_ComandoLCD
    i2_EscribeLCD_n8->i2___lbdiv
    i2___lbdiv->i2___lbmod
    i2_MostrarCursor->i2_ComandoLCD
    i2_CursorAInicio->i2_DireccionaLCD
    i2_DireccionaLCD->i2_EnviaDato
    i2_BorraLCD->i2_EnviaDato
    i2_EscribeLCD_c->i2_EnviaDato
    i2_EnviaDato->i2_RetardoLCD

Critical Paths under _main in BANK0

    None.

Critical Paths under _ISR in BANK0

    None.

Critical Paths under _main in BANK1

    None.

Critical Paths under _ISR in BANK1

    None.

Critical Paths under _main in BANK2

    None.

Critical Paths under _ISR in BANK2

    None.

Critical Paths under _main in BANK3

    None.

Critical Paths under _ISR in BANK3

    None.

Critical Paths under _main in BANK4

    None.

Critical Paths under _ISR in BANK4

    None.

Critical Paths under _main in BANK5

    None.

Critical Paths under _ISR in BANK5

    None.

Critical Paths under _main in BANK6

    None.

Critical Paths under _ISR in BANK6

    None.

Critical Paths under _main in BANK7

    None.

Critical Paths under _ISR in BANK7

    None.

Call Graph Tables:

 ---------------------------------------------------------------------------------
 (Depth) Function   	        Calls       Base Space   Used Autos Params    Refs
 ---------------------------------------------------------------------------------
 (0) _main                                                 2     2      0    3945
                                              0 BANK0      2     2      0
                         _Bienvenida
                           _BorraLCD
                    _ConfigVariables
                      _DireccionaLCD
                      _EscribeLCD_n8
                     _MensajeLCD_Var
                      _OcultarCursor
                  _PreguntaAlUsuario
 ---------------------------------------------------------------------------------
 (1) _PreguntaAlUsuario                                    2     2      0    1296
                                             34 COMRAM     2     2      0
                           _BorraLCD
                      _CrearCaracter
                      _DireccionaLCD
                       _EscribeLCD_c
                     _MensajeLCD_Var
                      _MostrarCursor
                      _OcultarCursor
 ---------------------------------------------------------------------------------
 (2) _MostrarCursor                                        0     0      0     285
                         _ComandoLCD
 ---------------------------------------------------------------------------------
 (1) _EscribeLCD_n8                                        5     4      1     757
                                             33 COMRAM     5     4      1
                          _EnviaDato
                        _HabilitaLCD
                         _RetardoLCD
                            ___lbdiv
                            ___lbmod
 ---------------------------------------------------------------------------------
 (2) ___lbmod                                              4     3      1     172
                                             25 COMRAM     4     3      1
 ---------------------------------------------------------------------------------
 (2) ___lbdiv                                              4     3      1     173
                                             29 COMRAM     4     3      1
                            ___lbmod (ARG)
 ---------------------------------------------------------------------------------
 (1) _ConfigVariables                                      0     0      0       0
 ---------------------------------------------------------------------------------
 (1) _Bienvenida                                           4     4      0    1252
                                             34 COMRAM     4     4      0
                       _ConfiguraLCD
                      _CrearCaracter
                  _DesplazaPantallaD
                      _DireccionaLCD
                       _EscribeLCD_c
                      _InicializaLCD
                     _MensajeLCD_Var
                      _OcultarCursor
 ---------------------------------------------------------------------------------
 (2) _OcultarCursor                                        0     0      0     285
                         _ComandoLCD
 ---------------------------------------------------------------------------------
 (3) _ComandoLCD                                           1     1      0     285
                                             30 COMRAM     1     1      0
                           _BorraLCD
                      _CursorAInicio
                          _EnviaDato
                        _HabilitaLCD
                         _RetardoLCD
 ---------------------------------------------------------------------------------
 (4) _CursorAInicio                                        0     0      0      90
                      _DireccionaLCD
 ---------------------------------------------------------------------------------
 (2) _MensajeLCD_Var                                       4     3      1     190
                                             30 COMRAM     4     3      1
                       _EscribeLCD_c
 ---------------------------------------------------------------------------------
 (3) _EscribeLCD_c                                         1     1      0      90
                                             29 COMRAM     1     1      0
                          _EnviaDato
                        _HabilitaLCD
                         _RetardoLCD
 ---------------------------------------------------------------------------------
 (2) _InicializaLCD                                        0     0      0     150
                           _BorraLCD
                          _EnviaDato
                        _HabilitaLCD
                         _RetardoLCD
 ---------------------------------------------------------------------------------
 (4) _BorraLCD                                             0     0      0      75
                          _EnviaDato
                        _HabilitaLCD
                         _RetardoLCD
 ---------------------------------------------------------------------------------
 (2) _DesplazaPantallaD                                    0     0      0      75
                          _EnviaDato
                        _HabilitaLCD
                         _RetardoLCD
 ---------------------------------------------------------------------------------
 (2) _CrearCaracter                                        4     2      2     281
                                             30 COMRAM     4     2      2
                      _DireccionaLCD
                          _EnviaDato
                        _HabilitaLCD
                         _RetardoLCD
 ---------------------------------------------------------------------------------
 (5) _DireccionaLCD                                        1     1      0      90
                                             29 COMRAM     1     1      0
                          _EnviaDato
                        _HabilitaLCD
                         _RetardoLCD
 ---------------------------------------------------------------------------------
 (4) _EnviaDato                                            2     2      0      60
                                             27 COMRAM     2     2      0
                        _HabilitaLCD
                         _RetardoLCD
 ---------------------------------------------------------------------------------
 (4) _RetardoLCD                                           2     2      0      15
                                             25 COMRAM     2     2      0
 ---------------------------------------------------------------------------------
 (4) _HabilitaLCD                                          0     0      0       0
 ---------------------------------------------------------------------------------
 (2) _ConfiguraLCD                                         1     1      0      45
                                             25 COMRAM     1     1      0
 ---------------------------------------------------------------------------------
 Estimated maximum stack depth 5
 ---------------------------------------------------------------------------------
 (Depth) Function   	        Calls       Base Space   Used Autos Params    Refs
 ---------------------------------------------------------------------------------
 (8) _ISR                                                 10    10      0    4404
                                             15 COMRAM    10    10      0
                             _Borrar
                     _ConfigPregunta
                            ___lwdiv
                         i2_BorraLCD
                    i2_DireccionaLCD
                    i2_EscribeLCD_n8
                   i2_MensajeLCD_Var
                    i2_OcultarCursor
 ---------------------------------------------------------------------------------
 (9) i2_MensajeLCD_Var                                     4     3      1     266
                                              5 COMRAM     4     3      1
                     i2_EscribeLCD_c
 ---------------------------------------------------------------------------------
 (9) ___lwdiv                                              7     3      4     164
                                              0 COMRAM     7     3      4
 ---------------------------------------------------------------------------------
 (9) _ConfigPregunta                                       2     2      0    1378
                                             13 COMRAM     2     2      0
                    i2_EscribeLCD_n8
                    i2_OcultarCursor
 ---------------------------------------------------------------------------------
 (9) i2_OcultarCursor                                      0     0      0     551
                       i2_ComandoLCD
 ---------------------------------------------------------------------------------
 (9) i2_EscribeLCD_n8                                      5     4      1     827
                                              8 COMRAM     5     4      1
                        i2_EnviaDato
                      i2_HabilitaLCD
                       i2_RetardoLCD
                          i2___lbdiv
                          i2___lbmod
 ---------------------------------------------------------------------------------
 (10) i2___lbmod                                           4     3      1     172
                                              0 COMRAM     4     3      1
 ---------------------------------------------------------------------------------
 (10) i2___lbdiv                                           4     3      1     173
                                              4 COMRAM     4     3      1
                          i2___lbmod (ARG)
 ---------------------------------------------------------------------------------
 (9) _Borrar                                               0     0      0     899
                    i2_DireccionaLCD
                     i2_EscribeLCD_c
                    i2_MostrarCursor
 ---------------------------------------------------------------------------------
 (10) i2_MostrarCursor                                     0     0      0     551
                       i2_ComandoLCD
 ---------------------------------------------------------------------------------
 (10) i2_ComandoLCD                                        1     1      0     551
                                              5 COMRAM     1     1      0
                         i2_BorraLCD
                    i2_CursorAInicio
                        i2_EnviaDato
                      i2_HabilitaLCD
                       i2_RetardoLCD
 ---------------------------------------------------------------------------------
 (11) i2_CursorAInicio                                     0     0      0     174
                    i2_DireccionaLCD
 ---------------------------------------------------------------------------------
 (12) i2_DireccionaLCD                                     1     1      0     174
                                              4 COMRAM     1     1      0
                        i2_EnviaDato
                      i2_HabilitaLCD
                       i2_RetardoLCD
 ---------------------------------------------------------------------------------
 (11) i2_BorraLCD                                          0     0      0     145
                        i2_EnviaDato
                      i2_HabilitaLCD
                       i2_RetardoLCD
 ---------------------------------------------------------------------------------
 (10) i2_EscribeLCD_c                                      1     1      0     174
                                              4 COMRAM     1     1      0
                        i2_EnviaDato
                      i2_HabilitaLCD
                       i2_RetardoLCD
 ---------------------------------------------------------------------------------
 (11) i2_EnviaDato                                         2     2      0     116
                                              2 COMRAM     2     2      0
                      i2_HabilitaLCD
                       i2_RetardoLCD
 ---------------------------------------------------------------------------------
 (11) i2_RetardoLCD                                        2     2      0      29
                                              0 COMRAM     2     2      0
 ---------------------------------------------------------------------------------
 (11) i2_HabilitaLCD                                       0     0      0       0
 ---------------------------------------------------------------------------------
 Estimated maximum stack depth 12
 ---------------------------------------------------------------------------------

 Call Graph Graphs:

 _main (ROOT)
   _Bienvenida
     _ConfiguraLCD
     _CrearCaracter
       _DireccionaLCD
         _EnviaDato
           _HabilitaLCD
           _RetardoLCD
         _HabilitaLCD
         _RetardoLCD
       _EnviaDato
       _HabilitaLCD
       _RetardoLCD
     _DesplazaPantallaD
       _EnviaDato
       _HabilitaLCD
       _RetardoLCD
     _DireccionaLCD
     _EscribeLCD_c
       _EnviaDato
       _HabilitaLCD
       _RetardoLCD
     _InicializaLCD
       _BorraLCD
         _EnviaDato
         _HabilitaLCD
         _RetardoLCD
       _EnviaDato
       _HabilitaLCD
       _RetardoLCD
     _MensajeLCD_Var
       _EscribeLCD_c
     _OcultarCursor
       _ComandoLCD
         _BorraLCD
         _CursorAInicio
           _DireccionaLCD
         _EnviaDato
         _HabilitaLCD
         _RetardoLCD
   _BorraLCD
   _ConfigVariables
   _DireccionaLCD
   _EscribeLCD_n8
     _EnviaDato
     _HabilitaLCD
     _RetardoLCD
     ___lbdiv
       ___lbmod (ARG)
     ___lbmod
   _MensajeLCD_Var
   _OcultarCursor
   _PreguntaAlUsuario
     _BorraLCD
     _CrearCaracter
     _DireccionaLCD
     _EscribeLCD_c
     _MensajeLCD_Var
     _MostrarCursor
       _ComandoLCD
     _OcultarCursor

 _ISR (ROOT)
   _Borrar
     i2_DireccionaLCD
       i2_EnviaDato
         i2_HabilitaLCD
         i2_RetardoLCD
       i2_HabilitaLCD
       i2_RetardoLCD
     i2_EscribeLCD_c
       i2_EnviaDato
       i2_HabilitaLCD
       i2_RetardoLCD
     i2_MostrarCursor
       i2_ComandoLCD
         i2_BorraLCD
           i2_EnviaDato
           i2_HabilitaLCD
           i2_RetardoLCD
         i2_CursorAInicio
           i2_DireccionaLCD
         i2_EnviaDato
         i2_HabilitaLCD
         i2_RetardoLCD
   _ConfigPregunta
     i2_EscribeLCD_n8
       i2_EnviaDato
       i2_HabilitaLCD
       i2_RetardoLCD
       i2___lbdiv
         i2___lbmod (ARG)
       i2___lbmod
     i2_OcultarCursor
       i2_ComandoLCD
   ___lwdiv
   i2_BorraLCD
   i2_DireccionaLCD
   i2_EscribeLCD_n8
   i2_MensajeLCD_Var
     i2_EscribeLCD_c
   i2_OcultarCursor

Address spaces:
Name               Size   Autos  Total    Usage
BIGRAM            2047      0       0      0.0%
BITBANK7           256      0       0      0.0%
BANK7              256      0       0      0.0%
BITBANK6           256      0       0      0.0%
BANK6              256      0       0      0.0%
BITBANK5           256      0       0      0.0%
BANK5              256      0       0      0.0%
BITBANK4           256      0       0      0.0%
BANK4              256      0       0      0.0%
BITBANK3           256      0       0      0.0%
BANK3              256      0       0      0.0%
BITBANK2           256      0       0      0.0%
BANK2              256      0       0      0.0%
BITBANK1           256      0       0      0.0%
BANK1              256      0       0      0.0%
BITBANK0           160      0       0      0.0%
BANK0              160      2       2      1.2%
BITBIGSFRlh        111      0       0      0.0%
BITCOMRAM           94      0       0      0.0%
COMRAM              94     38      69     73.4%
BITBIGSFRll         33      0       0      0.0%
BITBIGSFRh          14      0       0      0.0%
STACK                0      0       0      0.0%
DATA                 0      0      71      0.0%


Microchip Technology PIC18 Macro Assembler V2.50 build 20240725155939 
Symbol Table                                                                                   Fri Dec 05 16:44:39 2025

          i2DireccionaLCD@a 0005            i2EscribeLCD_n8@a 000D            i2EscribeLCD_n8@b 0009  
                EnviaDato@a 001D               _InicializaLCD 101E                         l340 0EFE  
                       l255 0CA4                         l338 0F66                         _GIE 7F97  
                       _RC1 7C11                         _RB4 7C0C                         _RB5 7C0D  
                       _RB6 7C0E                         _RB7 7C0F                         u140 1542  
                       _ISR 0008                         u970 110E                         u990 13CA  
                       wreg 0FE8                        ?_ISR 0001            ??i2_EscribeLCD_c 0005  
                      l1110 1174                        l1112 1184                        l1120 11AA  
                      l1114 1196                        l1116 11A0                        l1300 1030  
                      l1212 1430                        l1310 104E                        l1152 12A6  
                      l1320 106C                        l1216 1440                        l2200 13DC  
                      l1340 10A4                        l2204 13E4                        l2220 1500  
                      l2212 14E8                        l2150 131E                        l2170 10E2  
                      l2146 1304                        l2308 0DAA                        l2344 0FF2  
                      l2192 13C6                        l2282 0D00                        l2188 13C0  
                      l2292 0D46                        l2276 0CE0                        l2374 0EE2  
                      l2914 0BE2                        l2924 0C04                        l2950 0C56  
                      l2918 0BEE                        l2970 0C9A                        l2962 0C7C  
                      l2954 0C62                        l2980 0CCA                        l2966 0C8A  
                      l2958 0C6E                        l2894 0B98                        l2878 0B5E  
                      STR_1 0866            ?i2_OcultarCursor 0001                        STR_2 088A  
                      STR_3 0812                        STR_4 087E                        STR_5 083E  
                      STR_6 0895                        STR_7 084C                        STR_8 0872  
                      STR_9 0801                        u1020 101C                        u1050 0EFE  
                      _LATB 0F8A                        _LATD 0F8C                        _LATE 0F8D  
                      u1807 0B48                        u1680 0C00                        u1817 0BB4  
                      u1907 118E                        u1827 0C2C                        u1917 1198  
                      u1837 0CC2                        u1927 11A2                        u1847 0F24  
                      u1937 15F2                        u1857 0F54                        u1867 0FDC  
                      _PEIE 7F96                        u1877 0FFC                        u1887 117A  
                      _RBIE 7F93                        _RBIF 7F90                        u1897 1186  
                      _RBPU 7F8F                        _TMR0 0FD6                        _TMR1 0FCE  
            ??_EscribeLCD_c 001E                        _main 0AEC                        fsr2h 0FDA  
                      indf2 0FDF                        fsr1l 0FE1                        fsr2l 0FD9  
                      btemp 0046                  _Bienvenida 0F72                        prodh 0FF4  
                      prodl 0FF3                        start 000E               _pulsadorListo 0045  
            CrearCaracter@i 0021                ___param_bank 0000                       ??_ISR 0010  
           i2_DireccionaLCD 1574           ??i2_EscribeLCD_n8 000A              ?_InicializaLCD 0001  
                     ?_main 0001             __end_of___lbdiv 13E8                       STR_10 0859  
                     STR_11 0830                       STR_12 0822                  _ComandoLCD 1420  
             EscribeLCD_c@a 001E             __end_of___lbmod 1508             i2_MostrarCursor 162A  
                     _T0CON 0FD5                       _T1CON 0FCD                       _LATA1 7C49  
                     _LATA2 7C4A                       _LATA3 7C4B                       _LATA4 7C4C  
                     _LATA5 7C4D             __end_of___lwdiv 126E                       i2l300 09AC  
                     i2l301 0ABC                       i2l304 09F8                       i2l307 0A00  
                     i2l323 0AD0                       i2l309 0AAC                       i2l272 0912  
                     i2l281 0942                       i2l292 098E                       i2l285 0958  
                     i2l277 0932                       i2l269 08EC                       i2l287 0960  
                     i2l279 093A                       i2l296 099C                       i2l289 0968  
                     i2l298 09A4                       i2l836 1264                       _PORTB 0F81  
                     _TRISB 0F93                       _TRISD 0F95                       _TRISE 0F96  
                     _Marco 0028             ??_EscribeLCD_n8 0023     __end_of_ConfigVariables 14B2  
               ?i2_BorraLCD 0001                       tablat 0FF5                 _HabilitaLCD 15EE  
                     ttemp5 0047                       ttemp6 004A                       ttemp7 004E  
                     status 0FD8                       wtemp8 0047               i2___lbmod@rem 0004  
           ___lbdiv@divisor 001E             ___lbdiv@counter 0020            __end_of_BorraLCD 15B4  
           __initialization 1376                __end_of_main 0CDA               _CursorAInicio 161A  
          i2_MensajeLCD_Var 1338                      ??_main 0060        __end_of_ConfiguraLCD 1548  
             __activetblptr 0002       __end_of_CrearCaracter 1116                      _ADCON1 0FC1  
            DireccionaLCD@a 001E              EscribeLCD_n8@a 0026              EscribeLCD_n8@b 0022  
                    i2l2110 13FE                      i2l2040 11CA                      i2l2042 11DA  
                    i2l2050 1200                      i2l2106 13F8                      i2l2122 141C  
                    i2l2130 1510                      i2l2044 11EC                      i2l2046 11F6  
                    i2l2062 12EC                      i2l2118 1414                      i2l2090 1462  
                    i2l2138 1528                      i2l2242 0DE6                      i2l2252 0E2C  
                    i2l2236 0DC6                      i2l2094 1472                      i2l2414 1134  
                    i2l2424 116C                      i2l2450 123A                      i2l2268 0E90  
                    i2l2460 125A                      i2l2470 135C                      i2l2448 1232  
                    i2l2466 1342                      i2l2706 094C                      i2l2802 0AC0  
                    i2l2734 0990                      i2l2752 09B6                      i2l2762 09F2  
                    i2l2790 0A8E                      i2l2782 0A72                      i2l2694 092C  
                    i2l2794 0A9E                      i2l2786 0A80                      i2l2778 0A66  
            _piezasObjetivo 0038                      _TMR0IE 7F95                      _TMR0IF 7F92  
                    _TMR1IE 7CE8                      _TMR1IF 7CF0                      _TMR0ON 7EAF  
                    _TMR1ON 7E68                      _TRISA1 7C91                      _TRISA2 7C92  
                    _TRISA3 7C93                      _TRISA4 7C94                      _TRISC1 7CA1  
                    _TRISA5 7C95       __end_of_DireccionaLCD 1574                  _RetardoLCD 1170  
               ?_Bienvenida 0001                      _Borrar 14B2     __end_ofi2_DireccionaLCD 158A  
     __end_of_MostrarCursor 1612        EscribeLCD_n8@centena 0023              ?_CursorAInicio 0001  
   __end_ofi2_MostrarCursor 1632                   ??___lbdiv 001F                   ??___lbmod 001B  
                 ??___lwdiv 0005             ??_InicializaLCD 001E                      clear_0 139C  
                    isa$std 0001        __end_of_EscribeLCD_c 155E                 ?_ComandoLCD 0001  
              ?i2_EnviaDato 0001                __pdataCOMRAM 0027           __end_ofi2___lbdiv 1420  
         __end_ofi2___lbmod 1530                __mediumconst 0000                      tblptrh 0FF7  
                    tblptrl 0FF6                      tblptru 0FF8            ?_ConfigVariables 0001  
          ___lbdiv@dividend 001F        _indiceDigitoObjetivo 0044             ___lbmod@divisor 001A  
     __end_ofi2_HabilitaLCD 160A                  __accesstop 0060     __end_of__initialization 13A2  
           ___lbmod@counter 001C               ___rparam_used 0001  CrearCaracter@posicionCGRAM 0020  
            __pcstackCOMRAM 0001           __end_of_EnviaDato 12B4            ___lbdiv@quotient 0021  
                 ?_BorraLCD 0001                  _decenasRGB 003A              _MensajeLCD_Var 12FA  
           MensajeLCD_Var@a 001F             MensajeLCD_Var@i 0021           ??i2_CursorAInicio 0006  
                __pnvCOMRAM 0045                 ?_RetardoLCD 0001                 RetardoLCD@a 001B  
                   ?_Borrar 0001             i2_EscribeLCD_n8 0DC0             ??_CursorAInicio 001F  
          ?i2_DireccionaLCD 0001        CrearCaracter@arreglo 001F            ?i2_MostrarCursor 0001  
    __end_of_MensajeLCD_Var 1338                     i2u93_40 1402                ??i2_BorraLCD 0005  
                ??_BorraLCD 001E               _OcultarCursor 1612    __end_ofi2_MensajeLCD_Var 1376  
              ?_HabilitaLCD 0001                _ConfiguraLCD 1530                     __Hparam 0000  
     i2EscribeLCD_n8@decena 000B                     __Lparam 0000                     ___lbdiv 13B0  
                   ___lbmod 14E0       i2EscribeLCD_n8@unidad 000C                     ___lwdiv 121C  
              __psmallconst 0800          __end_ofi2_BorraLCD 15DC                     __pcinit 1376  
                   __ramtop 0800                     __ptext0 0AEC                     __ptext1 0EA6  
                   __ptext2 160A                     __ptext3 0CDA                     __ptext4 14E0  
                   __ptext5 13B0                     __ptext6 1484                     __ptext7 0F72  
                   __ptext8 1612                     __ptext9 1420               ?i2_ComandoLCD 0001  
           ?_MensajeLCD_Var 001F              ?_OcultarCursor 0001       __end_of_EscribeLCD_n8 0DC0  
                _teclaLeida 0041              __pintcode_body 08A2        end_of_initialization 13A2  
   __end_ofi2_EscribeLCD_n8 0EA6               __Lmediumconst 0000                     int_func 08A2  
              _EscribeLCD_c 1548                ??_Bienvenida 0023                     postdec1 0FE5  
                   postinc0 0FEE              ??i2_ComandoLCD 0006                ??_ComandoLCD 001F  
            _ConfigPregunta 1116            ___lbmod@dividend 001B          __end_of_Bienvenida 101E  
           i2EscribeLCD_c@a 0005                   i2___lbdiv 13E8                   i2___lbmod 1508  
               ___lbmod@rem 001D               i2ComandoLCD@a 0006            _flagConteoActivo 0042  
             ?i2_RetardoLCD 0001          __end_of_ComandoLCD 1452              __end_of_Borrar 14E0  
         ??i2_OcultarCursor 0007               __pidataCOMRAM 15DC       __end_of_InicializaLCD 10BA  
    __end_of_ConfigPregunta 1170                   _EnviaDato 126E             i2_CursorAInicio 1632  
           ??_OcultarCursor 0020         start_initialization 1376                 __end_of_ISR 0AEC  
                ?i2___lbdiv 0005                  ?i2___lbmod 0001            ?i2_EscribeLCD_n8 0009  
            ??i2_RetardoLCD 0001                ??_RetardoLCD 001A          i2___lbdiv@dividend 0006  
                  ??_Borrar 0007         EscribeLCD_n8@decena 0024         EscribeLCD_n8@unidad 0025  
           ?_ConfigPregunta 0001                  ?_EnviaDato 0001                 __pbssCOMRAM 0038  
        __end_of_RetardoLCD 11C6               __pcstackBANK0 0060               _CrearCaracter 10BA  
        i2___lbdiv@quotient 0008           ?i2_MensajeLCD_Var 0006        __end_ofi2_ComandoLCD 1484  
        ??i2_MensajeLCD_Var 0007               _DireccionaLCD 155E              i2_EscribeLCD_c 158A  
          ___lwdiv@dividend 0001               _MostrarCursor 160A       __end_of_CursorAInicio 1622  
                 __pintcode 0008                    ?___lbdiv 001E                    ?___lbmod 001A  
   __end_ofi2_CursorAInicio 163A                    ?___lwdiv 0001            ??_MensajeLCD_Var 0020  
               __smallconst 0800              ?_CrearCaracter 001F            ___lwdiv@quotient 0005  
               ??i2___lbdiv 0006           _PreguntaAlUsuario 0EA6                 ??i2___lbmod 0002  
     _piezasTotalesContadas 003E          ?_PreguntaAlUsuario 0001               i2_HabilitaLCD 15FC  
            ?_DireccionaLCD 0001      __end_ofi2_EscribeLCD_c 15A0                    i2u112_40 123E  
                  i2u200_47 1600                    i2u131_40 08D2                    i2u132_45 08D4  
       ??_PreguntaAlUsuario 0023                    i2u163_40 0AB8                    i2u164_45 0ABA  
                  i2u194_47 0AC6                    i2u195_47 11D0              ?_MostrarCursor 0001  
                  i2u196_47 11DC                    i2u197_47 11E4                    i2u198_47 11EE  
                  i2u199_47 11F8           ??_ConfigVariables 001A        _segundosSinActividad 0040  
             ??i2_EnviaDato 0003        __end_ofi2_RetardoLCD 121C                 ??_EnviaDato 001C  
 __end_of_PreguntaAlUsuario 0F72                    _BorraLCD 15A0                   copy_data0 138A  
            ?i2_HabilitaLCD 0001                    _Estrella 0030           _DesplazaPantallaD 15B4  
           ?i2_EscribeLCD_c 0001             i2_OcultarCursor 1622                    __Hrparam 0000  
        ?_DesplazaPantallaD 0001           i2___lbdiv@divisor 0005      i2EscribeLCD_n8@centena 000A  
               Bienvenida@i 0025           i2___lbdiv@counter 0007                    __Lrparam 0000  
          ?i2_CursorAInicio 0001         ??_DesplazaPantallaD 001E                i2EnviaDato@a 0004  
           ??_CrearCaracter 0021               ConfiguraLCD@a 001A           ??i2_DireccionaLCD 0005  
           ___lwdiv@divisor 0003             ___lwdiv@counter 0007                    __ptext10 161A  
                  __ptext11 12FA                    __ptext20 15EE                    __ptext12 1548  
                  __ptext21 1530                    __ptext13 101E                    __ptext30 14B2  
                  __ptext14 15A0                    __ptext31 162A                    __ptext23 1338  
                  __ptext15 15B4                    __ptext32 1452                    __ptext24 121C  
                  __ptext16 10BA                    __ptext33 1632                    __ptext25 1116  
                  __ptext17 155E                    __ptext34 1574                    __ptext26 1622  
                  __ptext18 126E                    __ptext35 15C8                    __ptext27 0DC0  
                  __ptext19 1170                    __ptext36 158A                    __ptext28 1508  
                  __ptext37 12B4                    __ptext29 13E8                    __ptext38 11C6  
                  __ptext39 15FC         __end_ofi2_EnviaDato 12FA           ??i2_MostrarCursor 0007  
        i2___lbmod@dividend 0002             ??_DireccionaLCD 001E   __end_of_DesplazaPantallaD 15C8  
                  _interfaz 0027             ??_MostrarCursor 0020                    isa$xinst 0000  
          ??_ConfigPregunta 000E                    int$flags 0046                i2_ComandoLCD 1452  
     __end_of_OcultarCursor 161A               _EscribeLCD_n8 0CDA     __end_ofi2_OcultarCursor 162A  
           ??i2_HabilitaLCD 0001                    intlevel2 0000               ??_HabilitaLCD 001A  
               ComandoLCD@a 001F               ?_ConfiguraLCD 0001           i2___lbmod@divisor 0001  
         i2___lbmod@counter 0003               i2RetardoLCD@a 0002         _modoEdicionObjetivo 0043  
               i2_EnviaDato 12B4              ?_EscribeLCD_n8 0022                  i2_BorraLCD 15C8  
              _unidades7Seg 003C              ??_ConfiguraLCD 001A               ?_EscribeLCD_c 0001  
           _ConfigVariables 1484           i2MensajeLCD_Var@a 0006           i2MensajeLCD_Var@i 0008  
              i2_RetardoLCD 11C6         __end_of_HabilitaLCD 15FC  
